(lp0
S'https://aa1603@georgetown.edu:amit1234@data.caida.org/datasets/passive-2015/equinix-chicago/20150219-130000.UTC/equinix-chicago.dirA.20150219-125911.UTC.anon.pcap.gz'
p1
aS'https://aa1603@georgetown.edu:amit1234@data.caida.org/datasets/passive-2015/equinix-chicago/20150219-130000.UTC/equinix-chicago.dirA.20150219-130000.UTC.anon.pcap.gz'
p2
aS'https://aa1603@georgetown.edu:amit1234@data.caida.org/datasets/passive-2015/equinix-chicago/20150219-130000.UTC/equinix-chicago.dirA.20150219-130100.UTC.anon.pcap.gz'
p3
aS'https://aa1603@georgetown.edu:amit1234@data.caida.org/datasets/passive-2015/equinix-chicago/20150219-130000.UTC/equinix-chicago.dirA.20150219-130200.UTC.anon.pcap.gz'
p4
aS'https://aa1603@georgetown.edu:amit1234@data.caida.org/datasets/passive-2015/equinix-chicago/20150219-130000.UTC/equinix-chicago.dirA.20150219-130300.UTC.anon.pcap.gz'
p5
aS'https://aa1603@georgetown.edu:amit1234@data.caida.org/datasets/passive-2015/equinix-chicago/20150219-130000.UTC/equinix-chicago.dirA.20150219-130400.UTC.anon.pcap.gz'
p6
aS'https://aa1603@georgetown.edu:amit1234@data.caida.org/datasets/passive-2015/equinix-chicago/20150219-130000.UTC/equinix-chicago.dirA.20150219-130500.UTC.anon.pcap.gz'
p7
aS'https://aa1603@georgetown.edu:amit1234@data.caida.org/datasets/passive-2015/equinix-chicago/20150219-130000.UTC/equinix-chicago.dirA.20150219-130600.UTC.anon.pcap.gz'
p8
aS'https://aa1603@georgetown.edu:amit1234@data.caida.org/datasets/passive-2015/equinix-chicago/20150219-130000.UTC/equinix-chicago.dirA.20150219-130700.UTC.anon.pcap.gz'
p9
aS'https://aa1603@georgetown.edu:amit1234@data.caida.org/datasets/passive-2015/equinix-chicago/20150219-130000.UTC/equinix-chicago.dirA.20150219-130800.UTC.anon.pcap.gz'
p10
aS'https://aa1603@georgetown.edu:amit1234@data.caida.org/datasets/passive-2015/equinix-chicago/20150219-130000.UTC/equinix-chicago.dirA.20150219-130900.UTC.anon.pcap.gz'
p11
aS'https://aa1603@georgetown.edu:amit1234@data.caida.org/datasets/passive-2015/equinix-chicago/20150219-130000.UTC/equinix-chicago.dirA.20150219-131000.UTC.anon.pcap.gz'
p12
aS'https://aa1603@georgetown.edu:amit1234@data.caida.org/datasets/passive-2015/equinix-chicago/20150219-130000.UTC/equinix-chicago.dirA.20150219-131100.UTC.anon.pcap.gz'
p13
aS'https://aa1603@georgetown.edu:amit1234@data.caida.org/datasets/passive-2015/equinix-chicago/20150219-130000.UTC/equinix-chicago.dirA.20150219-131200.UTC.anon.pcap.gz'
p14
aS'https://aa1603@georgetown.edu:amit1234@data.caida.org/datasets/passive-2015/equinix-chicago/20150219-130000.UTC/equinix-chicago.dirA.20150219-131300.UTC.anon.pcap.gz'
p15
aS'https://aa1603@georgetown.edu:amit1234@data.caida.org/datasets/passive-2015/equinix-chicago/20150219-130000.UTC/equinix-chicago.dirA.20150219-131400.UTC.anon.pcap.gz'
p16
aS'https://aa1603@georgetown.edu:amit1234@data.caida.org/datasets/passive-2015/equinix-chicago/20150219-130000.UTC/equinix-chicago.dirA.20150219-131500.UTC.anon.pcap.gz'
p17
aS'https://aa1603@georgetown.edu:amit1234@data.caida.org/datasets/passive-2015/equinix-chicago/20150219-130000.UTC/equinix-chicago.dirA.20150219-131600.UTC.anon.pcap.gz'
p18
aS'https://aa1603@georgetown.edu:amit1234@data.caida.org/datasets/passive-2015/equinix-chicago/20150219-130000.UTC/equinix-chicago.dirA.20150219-131700.UTC.anon.pcap.gz'
p19
aS'https://aa1603@georgetown.edu:amit1234@data.caida.org/datasets/passive-2015/equinix-chicago/20150219-130000.UTC/equinix-chicago.dirA.20150219-131800.UTC.anon.pcap.gz'
p20
aS'https://aa1603@georgetown.edu:amit1234@data.caida.org/datasets/passive-2015/equinix-chicago/20150219-130000.UTC/equinix-chicago.dirA.20150219-131900.UTC.anon.pcap.gz'
p21
aS'https://aa1603@georgetown.edu:amit1234@data.caida.org/datasets/passive-2015/equinix-chicago/20150219-130000.UTC/equinix-chicago.dirA.20150219-132000.UTC.anon.pcap.gz'
p22
aS'https://aa1603@georgetown.edu:amit1234@data.caida.org/datasets/passive-2015/equinix-chicago/20150219-130000.UTC/equinix-chicago.dirA.20150219-132100.UTC.anon.pcap.gz'
p23
aS'https://aa1603@georgetown.edu:amit1234@data.caida.org/datasets/passive-2015/equinix-chicago/20150219-130000.UTC/equinix-chicago.dirA.20150219-132200.UTC.anon.pcap.gz'
p24
aS'https://aa1603@georgetown.edu:amit1234@data.caida.org/datasets/passive-2015/equinix-chicago/20150219-130000.UTC/equinix-chicago.dirA.20150219-132300.UTC.anon.pcap.gz'
p25
aS'https://aa1603@georgetown.edu:amit1234@data.caida.org/datasets/passive-2015/equinix-chicago/20150219-130000.UTC/equinix-chicago.dirA.20150219-132400.UTC.anon.pcap.gz'
p26
aS'https://aa1603@georgetown.edu:amit1234@data.caida.org/datasets/passive-2015/equinix-chicago/20150219-130000.UTC/equinix-chicago.dirA.20150219-132500.UTC.anon.pcap.gz'
p27
aS'https://aa1603@georgetown.edu:amit1234@data.caida.org/datasets/passive-2015/equinix-chicago/20150219-130000.UTC/equinix-chicago.dirA.20150219-132600.UTC.anon.pcap.gz'
p28
aS'https://aa1603@georgetown.edu:amit1234@data.caida.org/datasets/passive-2015/equinix-chicago/20150219-130000.UTC/equinix-chicago.dirA.20150219-132700.UTC.anon.pcap.gz'
p29
aS'https://aa1603@georgetown.edu:amit1234@data.caida.org/datasets/passive-2015/equinix-chicago/20150219-130000.UTC/equinix-chicago.dirA.20150219-132800.UTC.anon.pcap.gz'
p30
aS'https://aa1603@georgetown.edu:amit1234@data.caida.org/datasets/passive-2015/equinix-chicago/20150219-130000.UTC/equinix-chicago.dirA.20150219-132900.UTC.anon.pcap.gz'
p31
aS'https://aa1603@georgetown.edu:amit1234@data.caida.org/datasets/passive-2015/equinix-chicago/20150219-130000.UTC/equinix-chicago.dirA.20150219-133000.UTC.anon.pcap.gz'
p32
aS'https://aa1603@georgetown.edu:amit1234@data.caida.org/datasets/passive-2015/equinix-chicago/20150219-130000.UTC/equinix-chicago.dirA.20150219-133100.UTC.anon.pcap.gz'
p33
aS'https://aa1603@georgetown.edu:amit1234@data.caida.org/datasets/passive-2015/equinix-chicago/20150219-130000.UTC/equinix-chicago.dirA.20150219-133200.UTC.anon.pcap.gz'
p34
aS'https://aa1603@georgetown.edu:amit1234@data.caida.org/datasets/passive-2015/equinix-chicago/20150219-130000.UTC/equinix-chicago.dirA.20150219-133300.UTC.anon.pcap.gz'
p35
aS'https://aa1603@georgetown.edu:amit1234@data.caida.org/datasets/passive-2015/equinix-chicago/20150219-130000.UTC/equinix-chicago.dirA.20150219-133400.UTC.anon.pcap.gz'
p36
aS'https://aa1603@georgetown.edu:amit1234@data.caida.org/datasets/passive-2015/equinix-chicago/20150219-130000.UTC/equinix-chicago.dirA.20150219-133500.UTC.anon.pcap.gz'
p37
aS'https://aa1603@georgetown.edu:amit1234@data.caida.org/datasets/passive-2015/equinix-chicago/20150219-130000.UTC/equinix-chicago.dirA.20150219-133600.UTC.anon.pcap.gz'
p38
aS'https://aa1603@georgetown.edu:amit1234@data.caida.org/datasets/passive-2015/equinix-chicago/20150219-130000.UTC/equinix-chicago.dirA.20150219-133700.UTC.anon.pcap.gz'
p39
aS'https://aa1603@georgetown.edu:amit1234@data.caida.org/datasets/passive-2015/equinix-chicago/20150219-130000.UTC/equinix-chicago.dirA.20150219-133800.UTC.anon.pcap.gz'
p40
aS'https://aa1603@georgetown.edu:amit1234@data.caida.org/datasets/passive-2015/equinix-chicago/20150219-130000.UTC/equinix-chicago.dirA.20150219-133900.UTC.anon.pcap.gz'
p41
aS'https://aa1603@georgetown.edu:amit1234@data.caida.org/datasets/passive-2015/equinix-chicago/20150219-130000.UTC/equinix-chicago.dirA.20150219-134000.UTC.anon.pcap.gz'
p42
aS'https://aa1603@georgetown.edu:amit1234@data.caida.org/datasets/passive-2015/equinix-chicago/20150219-130000.UTC/equinix-chicago.dirA.20150219-134100.UTC.anon.pcap.gz'
p43
aS'https://aa1603@georgetown.edu:amit1234@data.caida.org/datasets/passive-2015/equinix-chicago/20150219-130000.UTC/equinix-chicago.dirA.20150219-134200.UTC.anon.pcap.gz'
p44
aS'https://aa1603@georgetown.edu:amit1234@data.caida.org/datasets/passive-2015/equinix-chicago/20150219-130000.UTC/equinix-chicago.dirA.20150219-134300.UTC.anon.pcap.gz'
p45
aS'https://aa1603@georgetown.edu:amit1234@data.caida.org/datasets/passive-2015/equinix-chicago/20150219-130000.UTC/equinix-chicago.dirA.20150219-134400.UTC.anon.pcap.gz'
p46
aS'https://aa1603@georgetown.edu:amit1234@data.caida.org/datasets/passive-2015/equinix-chicago/20150219-130000.UTC/equinix-chicago.dirA.20150219-134500.UTC.anon.pcap.gz'
p47
aS'https://aa1603@georgetown.edu:amit1234@data.caida.org/datasets/passive-2015/equinix-chicago/20150219-130000.UTC/equinix-chicago.dirA.20150219-134600.UTC.anon.pcap.gz'
p48
aS'https://aa1603@georgetown.edu:amit1234@data.caida.org/datasets/passive-2015/equinix-chicago/20150219-130000.UTC/equinix-chicago.dirA.20150219-134700.UTC.anon.pcap.gz'
p49
aS'https://aa1603@georgetown.edu:amit1234@data.caida.org/datasets/passive-2015/equinix-chicago/20150219-130000.UTC/equinix-chicago.dirA.20150219-134800.UTC.anon.pcap.gz'
p50
aS'https://aa1603@georgetown.edu:amit1234@data.caida.org/datasets/passive-2015/equinix-chicago/20150219-130000.UTC/equinix-chicago.dirA.20150219-134900.UTC.anon.pcap.gz'
p51
aS'https://aa1603@georgetown.edu:amit1234@data.caida.org/datasets/passive-2015/equinix-chicago/20150219-130000.UTC/equinix-chicago.dirA.20150219-135000.UTC.anon.pcap.gz'
p52
aS'https://aa1603@georgetown.edu:amit1234@data.caida.org/datasets/passive-2015/equinix-chicago/20150219-130000.UTC/equinix-chicago.dirA.20150219-135100.UTC.anon.pcap.gz'
p53
aS'https://aa1603@georgetown.edu:amit1234@data.caida.org/datasets/passive-2015/equinix-chicago/20150219-130000.UTC/equinix-chicago.dirA.20150219-135200.UTC.anon.pcap.gz'
p54
aS'https://aa1603@georgetown.edu:amit1234@data.caida.org/datasets/passive-2015/equinix-chicago/20150219-130000.UTC/equinix-chicago.dirA.20150219-135300.UTC.anon.pcap.gz'
p55
aS'https://aa1603@georgetown.edu:amit1234@data.caida.org/datasets/passive-2015/equinix-chicago/20150219-130000.UTC/equinix-chicago.dirA.20150219-135400.UTC.anon.pcap.gz'
p56
aS'https://aa1603@georgetown.edu:amit1234@data.caida.org/datasets/passive-2015/equinix-chicago/20150219-130000.UTC/equinix-chicago.dirA.20150219-135500.UTC.anon.pcap.gz'
p57
aS'https://aa1603@georgetown.edu:amit1234@data.caida.org/datasets/passive-2015/equinix-chicago/20150219-130000.UTC/equinix-chicago.dirA.20150219-135600.UTC.anon.pcap.gz'
p58
aS'https://aa1603@georgetown.edu:amit1234@data.caida.org/datasets/passive-2015/equinix-chicago/20150219-130000.UTC/equinix-chicago.dirA.20150219-135700.UTC.anon.pcap.gz'
p59
aS'https://aa1603@georgetown.edu:amit1234@data.caida.org/datasets/passive-2015/equinix-chicago/20150219-130000.UTC/equinix-chicago.dirA.20150219-135800.UTC.anon.pcap.gz'
p60
aS'https://aa1603@georgetown.edu:amit1234@data.caida.org/datasets/passive-2015/equinix-chicago/20150219-130000.UTC/equinix-chicago.dirA.20150219-135900.UTC.anon.pcap.gz'
p61
aS'https://aa1603@georgetown.edu:amit1234@data.caida.org/datasets/passive-2015/equinix-chicago/20150219-130000.UTC/equinix-chicago.dirA.20150219-140000.UTC.anon.pcap.gz'
p62
aS'https://aa1603@georgetown.edu:amit1234@data.caida.org/datasets/passive-2015/equinix-chicago/20150219-130000.UTC/equinix-chicago.dirA.20150219-140100.UTC.anon.pcap.gz'
p63
aS'https://aa1603@georgetown.edu:amit1234@data.caida.org/datasets/passive-2015/equinix-chicago/20150219-130000.UTC/equinix-chicago.dirA.20150219-140200.UTC.anon.pcap.gz'
p64
aS'https://aa1603@georgetown.edu:amit1234@data.caida.org/datasets/passive-2015/equinix-chicago/20150219-130000.UTC/equinix-chicago.dirB.20150219-125911.UTC.anon.pcap.gz'
p65
aS'https://aa1603@georgetown.edu:amit1234@data.caida.org/datasets/passive-2015/equinix-chicago/20150219-130000.UTC/equinix-chicago.dirB.20150219-130000.UTC.anon.pcap.gz'
p66
aS'https://aa1603@georgetown.edu:amit1234@data.caida.org/datasets/passive-2015/equinix-chicago/20150219-130000.UTC/equinix-chicago.dirB.20150219-130100.UTC.anon.pcap.gz'
p67
aS'https://aa1603@georgetown.edu:amit1234@data.caida.org/datasets/passive-2015/equinix-chicago/20150219-130000.UTC/equinix-chicago.dirB.20150219-130200.UTC.anon.pcap.gz'
p68
aS'https://aa1603@georgetown.edu:amit1234@data.caida.org/datasets/passive-2015/equinix-chicago/20150219-130000.UTC/equinix-chicago.dirB.20150219-130300.UTC.anon.pcap.gz'
p69
aS'https://aa1603@georgetown.edu:amit1234@data.caida.org/datasets/passive-2015/equinix-chicago/20150219-130000.UTC/equinix-chicago.dirB.20150219-130400.UTC.anon.pcap.gz'
p70
aS'https://aa1603@georgetown.edu:amit1234@data.caida.org/datasets/passive-2015/equinix-chicago/20150219-130000.UTC/equinix-chicago.dirB.20150219-130500.UTC.anon.pcap.gz'
p71
aS'https://aa1603@georgetown.edu:amit1234@data.caida.org/datasets/passive-2015/equinix-chicago/20150219-130000.UTC/equinix-chicago.dirB.20150219-130600.UTC.anon.pcap.gz'
p72
aS'https://aa1603@georgetown.edu:amit1234@data.caida.org/datasets/passive-2015/equinix-chicago/20150219-130000.UTC/equinix-chicago.dirB.20150219-130700.UTC.anon.pcap.gz'
p73
aS'https://aa1603@georgetown.edu:amit1234@data.caida.org/datasets/passive-2015/equinix-chicago/20150219-130000.UTC/equinix-chicago.dirB.20150219-130800.UTC.anon.pcap.gz'
p74
aS'https://aa1603@georgetown.edu:amit1234@data.caida.org/datasets/passive-2015/equinix-chicago/20150219-130000.UTC/equinix-chicago.dirB.20150219-130900.UTC.anon.pcap.gz'
p75
aS'https://aa1603@georgetown.edu:amit1234@data.caida.org/datasets/passive-2015/equinix-chicago/20150219-130000.UTC/equinix-chicago.dirB.20150219-131000.UTC.anon.pcap.gz'
p76
aS'https://aa1603@georgetown.edu:amit1234@data.caida.org/datasets/passive-2015/equinix-chicago/20150219-130000.UTC/equinix-chicago.dirB.20150219-131100.UTC.anon.pcap.gz'
p77
aS'https://aa1603@georgetown.edu:amit1234@data.caida.org/datasets/passive-2015/equinix-chicago/20150219-130000.UTC/equinix-chicago.dirB.20150219-131200.UTC.anon.pcap.gz'
p78
aS'https://aa1603@georgetown.edu:amit1234@data.caida.org/datasets/passive-2015/equinix-chicago/20150219-130000.UTC/equinix-chicago.dirB.20150219-131300.UTC.anon.pcap.gz'
p79
aS'https://aa1603@georgetown.edu:amit1234@data.caida.org/datasets/passive-2015/equinix-chicago/20150219-130000.UTC/equinix-chicago.dirB.20150219-131400.UTC.anon.pcap.gz'
p80
aS'https://aa1603@georgetown.edu:amit1234@data.caida.org/datasets/passive-2015/equinix-chicago/20150219-130000.UTC/equinix-chicago.dirB.20150219-131500.UTC.anon.pcap.gz'
p81
aS'https://aa1603@georgetown.edu:amit1234@data.caida.org/datasets/passive-2015/equinix-chicago/20150219-130000.UTC/equinix-chicago.dirB.20150219-131600.UTC.anon.pcap.gz'
p82
aS'https://aa1603@georgetown.edu:amit1234@data.caida.org/datasets/passive-2015/equinix-chicago/20150219-130000.UTC/equinix-chicago.dirB.20150219-131700.UTC.anon.pcap.gz'
p83
aS'https://aa1603@georgetown.edu:amit1234@data.caida.org/datasets/passive-2015/equinix-chicago/20150219-130000.UTC/equinix-chicago.dirB.20150219-131800.UTC.anon.pcap.gz'
p84
aS'https://aa1603@georgetown.edu:amit1234@data.caida.org/datasets/passive-2015/equinix-chicago/20150219-130000.UTC/equinix-chicago.dirB.20150219-131900.UTC.anon.pcap.gz'
p85
aS'https://aa1603@georgetown.edu:amit1234@data.caida.org/datasets/passive-2015/equinix-chicago/20150219-130000.UTC/equinix-chicago.dirB.20150219-132000.UTC.anon.pcap.gz'
p86
aS'https://aa1603@georgetown.edu:amit1234@data.caida.org/datasets/passive-2015/equinix-chicago/20150219-130000.UTC/equinix-chicago.dirB.20150219-132100.UTC.anon.pcap.gz'
p87
aS'https://aa1603@georgetown.edu:amit1234@data.caida.org/datasets/passive-2015/equinix-chicago/20150219-130000.UTC/equinix-chicago.dirB.20150219-132200.UTC.anon.pcap.gz'
p88
aS'https://aa1603@georgetown.edu:amit1234@data.caida.org/datasets/passive-2015/equinix-chicago/20150219-130000.UTC/equinix-chicago.dirB.20150219-132300.UTC.anon.pcap.gz'
p89
aS'https://aa1603@georgetown.edu:amit1234@data.caida.org/datasets/passive-2015/equinix-chicago/20150219-130000.UTC/equinix-chicago.dirB.20150219-132400.UTC.anon.pcap.gz'
p90
aS'https://aa1603@georgetown.edu:amit1234@data.caida.org/datasets/passive-2015/equinix-chicago/20150219-130000.UTC/equinix-chicago.dirB.20150219-132500.UTC.anon.pcap.gz'
p91
aS'https://aa1603@georgetown.edu:amit1234@data.caida.org/datasets/passive-2015/equinix-chicago/20150219-130000.UTC/equinix-chicago.dirB.20150219-132600.UTC.anon.pcap.gz'
p92
aS'https://aa1603@georgetown.edu:amit1234@data.caida.org/datasets/passive-2015/equinix-chicago/20150219-130000.UTC/equinix-chicago.dirB.20150219-132700.UTC.anon.pcap.gz'
p93
aS'https://aa1603@georgetown.edu:amit1234@data.caida.org/datasets/passive-2015/equinix-chicago/20150219-130000.UTC/equinix-chicago.dirB.20150219-132800.UTC.anon.pcap.gz'
p94
aS'https://aa1603@georgetown.edu:amit1234@data.caida.org/datasets/passive-2015/equinix-chicago/20150219-130000.UTC/equinix-chicago.dirB.20150219-132900.UTC.anon.pcap.gz'
p95
aS'https://aa1603@georgetown.edu:amit1234@data.caida.org/datasets/passive-2015/equinix-chicago/20150219-130000.UTC/equinix-chicago.dirB.20150219-133000.UTC.anon.pcap.gz'
p96
aS'https://aa1603@georgetown.edu:amit1234@data.caida.org/datasets/passive-2015/equinix-chicago/20150219-130000.UTC/equinix-chicago.dirB.20150219-133100.UTC.anon.pcap.gz'
p97
aS'https://aa1603@georgetown.edu:amit1234@data.caida.org/datasets/passive-2015/equinix-chicago/20150219-130000.UTC/equinix-chicago.dirB.20150219-133200.UTC.anon.pcap.gz'
p98
aS'https://aa1603@georgetown.edu:amit1234@data.caida.org/datasets/passive-2015/equinix-chicago/20150219-130000.UTC/equinix-chicago.dirB.20150219-133300.UTC.anon.pcap.gz'
p99
aS'https://aa1603@georgetown.edu:amit1234@data.caida.org/datasets/passive-2015/equinix-chicago/20150219-130000.UTC/equinix-chicago.dirB.20150219-133400.UTC.anon.pcap.gz'
p100
aS'https://aa1603@georgetown.edu:amit1234@data.caida.org/datasets/passive-2015/equinix-chicago/20150219-130000.UTC/equinix-chicago.dirB.20150219-133500.UTC.anon.pcap.gz'
p101
aS'https://aa1603@georgetown.edu:amit1234@data.caida.org/datasets/passive-2015/equinix-chicago/20150219-130000.UTC/equinix-chicago.dirB.20150219-133600.UTC.anon.pcap.gz'
p102
aS'https://aa1603@georgetown.edu:amit1234@data.caida.org/datasets/passive-2015/equinix-chicago/20150219-130000.UTC/equinix-chicago.dirB.20150219-133700.UTC.anon.pcap.gz'
p103
aS'https://aa1603@georgetown.edu:amit1234@data.caida.org/datasets/passive-2015/equinix-chicago/20150219-130000.UTC/equinix-chicago.dirB.20150219-133800.UTC.anon.pcap.gz'
p104
aS'https://aa1603@georgetown.edu:amit1234@data.caida.org/datasets/passive-2015/equinix-chicago/20150219-130000.UTC/equinix-chicago.dirB.20150219-133900.UTC.anon.pcap.gz'
p105
aS'https://aa1603@georgetown.edu:amit1234@data.caida.org/datasets/passive-2015/equinix-chicago/20150219-130000.UTC/equinix-chicago.dirB.20150219-134000.UTC.anon.pcap.gz'
p106
aS'https://aa1603@georgetown.edu:amit1234@data.caida.org/datasets/passive-2015/equinix-chicago/20150219-130000.UTC/equinix-chicago.dirB.20150219-134100.UTC.anon.pcap.gz'
p107
aS'https://aa1603@georgetown.edu:amit1234@data.caida.org/datasets/passive-2015/equinix-chicago/20150219-130000.UTC/equinix-chicago.dirB.20150219-134200.UTC.anon.pcap.gz'
p108
aS'https://aa1603@georgetown.edu:amit1234@data.caida.org/datasets/passive-2015/equinix-chicago/20150219-130000.UTC/equinix-chicago.dirB.20150219-134300.UTC.anon.pcap.gz'
p109
aS'https://aa1603@georgetown.edu:amit1234@data.caida.org/datasets/passive-2015/equinix-chicago/20150219-130000.UTC/equinix-chicago.dirB.20150219-134400.UTC.anon.pcap.gz'
p110
aS'https://aa1603@georgetown.edu:amit1234@data.caida.org/datasets/passive-2015/equinix-chicago/20150219-130000.UTC/equinix-chicago.dirB.20150219-134500.UTC.anon.pcap.gz'
p111
aS'https://aa1603@georgetown.edu:amit1234@data.caida.org/datasets/passive-2015/equinix-chicago/20150219-130000.UTC/equinix-chicago.dirB.20150219-134600.UTC.anon.pcap.gz'
p112
aS'https://aa1603@georgetown.edu:amit1234@data.caida.org/datasets/passive-2015/equinix-chicago/20150219-130000.UTC/equinix-chicago.dirB.20150219-134700.UTC.anon.pcap.gz'
p113
aS'https://aa1603@georgetown.edu:amit1234@data.caida.org/datasets/passive-2015/equinix-chicago/20150219-130000.UTC/equinix-chicago.dirB.20150219-134800.UTC.anon.pcap.gz'
p114
aS'https://aa1603@georgetown.edu:amit1234@data.caida.org/datasets/passive-2015/equinix-chicago/20150219-130000.UTC/equinix-chicago.dirB.20150219-134900.UTC.anon.pcap.gz'
p115
aS'https://aa1603@georgetown.edu:amit1234@data.caida.org/datasets/passive-2015/equinix-chicago/20150219-130000.UTC/equinix-chicago.dirB.20150219-135000.UTC.anon.pcap.gz'
p116
aS'https://aa1603@georgetown.edu:amit1234@data.caida.org/datasets/passive-2015/equinix-chicago/20150219-130000.UTC/equinix-chicago.dirB.20150219-135100.UTC.anon.pcap.gz'
p117
aS'https://aa1603@georgetown.edu:amit1234@data.caida.org/datasets/passive-2015/equinix-chicago/20150219-130000.UTC/equinix-chicago.dirB.20150219-135200.UTC.anon.pcap.gz'
p118
aS'https://aa1603@georgetown.edu:amit1234@data.caida.org/datasets/passive-2015/equinix-chicago/20150219-130000.UTC/equinix-chicago.dirB.20150219-135300.UTC.anon.pcap.gz'
p119
aS'https://aa1603@georgetown.edu:amit1234@data.caida.org/datasets/passive-2015/equinix-chicago/20150219-130000.UTC/equinix-chicago.dirB.20150219-135400.UTC.anon.pcap.gz'
p120
aS'https://aa1603@georgetown.edu:amit1234@data.caida.org/datasets/passive-2015/equinix-chicago/20150219-130000.UTC/equinix-chicago.dirB.20150219-135500.UTC.anon.pcap.gz'
p121
aS'https://aa1603@georgetown.edu:amit1234@data.caida.org/datasets/passive-2015/equinix-chicago/20150219-130000.UTC/equinix-chicago.dirB.20150219-135600.UTC.anon.pcap.gz'
p122
aS'https://aa1603@georgetown.edu:amit1234@data.caida.org/datasets/passive-2015/equinix-chicago/20150219-130000.UTC/equinix-chicago.dirB.20150219-135700.UTC.anon.pcap.gz'
p123
aS'https://aa1603@georgetown.edu:amit1234@data.caida.org/datasets/passive-2015/equinix-chicago/20150219-130000.UTC/equinix-chicago.dirB.20150219-135800.UTC.anon.pcap.gz'
p124
aS'https://aa1603@georgetown.edu:amit1234@data.caida.org/datasets/passive-2015/equinix-chicago/20150219-130000.UTC/equinix-chicago.dirB.20150219-135900.UTC.anon.pcap.gz'
p125
aS'https://aa1603@georgetown.edu:amit1234@data.caida.org/datasets/passive-2015/equinix-chicago/20150219-130000.UTC/equinix-chicago.dirB.20150219-140000.UTC.anon.pcap.gz'
p126
aS'https://aa1603@georgetown.edu:amit1234@data.caida.org/datasets/passive-2015/equinix-chicago/20150219-130000.UTC/equinix-chicago.dirB.20150219-140100.UTC.anon.pcap.gz'
p127
aS'https://aa1603@georgetown.edu:amit1234@data.caida.org/datasets/passive-2015/equinix-chicago/20150219-130000.UTC/equinix-chicago.dirB.20150219-140200.UTC.anon.pcap.gz'
p128
aS'https://aa1603@georgetown.edu:amit1234@data.caida.org/datasets/passive-2015/equinix-chicago/20150521-130000.UTC/equinix-chicago.dirA.20150521-125911.UTC.anon.pcap.gz'
p129
aS'https://aa1603@georgetown.edu:amit1234@data.caida.org/datasets/passive-2015/equinix-chicago/20150521-130000.UTC/equinix-chicago.dirA.20150521-130000.UTC.anon.pcap.gz'
p130
aS'https://aa1603@georgetown.edu:amit1234@data.caida.org/datasets/passive-2015/equinix-chicago/20150521-130000.UTC/equinix-chicago.dirA.20150521-130100.UTC.anon.pcap.gz'
p131
aS'https://aa1603@georgetown.edu:amit1234@data.caida.org/datasets/passive-2015/equinix-chicago/20150521-130000.UTC/equinix-chicago.dirA.20150521-130200.UTC.anon.pcap.gz'
p132
aS'https://aa1603@georgetown.edu:amit1234@data.caida.org/datasets/passive-2015/equinix-chicago/20150521-130000.UTC/equinix-chicago.dirA.20150521-130300.UTC.anon.pcap.gz'
p133
aS'https://aa1603@georgetown.edu:amit1234@data.caida.org/datasets/passive-2015/equinix-chicago/20150521-130000.UTC/equinix-chicago.dirA.20150521-130400.UTC.anon.pcap.gz'
p134
aS'https://aa1603@georgetown.edu:amit1234@data.caida.org/datasets/passive-2015/equinix-chicago/20150521-130000.UTC/equinix-chicago.dirA.20150521-130500.UTC.anon.pcap.gz'
p135
aS'https://aa1603@georgetown.edu:amit1234@data.caida.org/datasets/passive-2015/equinix-chicago/20150521-130000.UTC/equinix-chicago.dirA.20150521-130600.UTC.anon.pcap.gz'
p136
aS'https://aa1603@georgetown.edu:amit1234@data.caida.org/datasets/passive-2015/equinix-chicago/20150521-130000.UTC/equinix-chicago.dirA.20150521-130700.UTC.anon.pcap.gz'
p137
aS'https://aa1603@georgetown.edu:amit1234@data.caida.org/datasets/passive-2015/equinix-chicago/20150521-130000.UTC/equinix-chicago.dirA.20150521-130800.UTC.anon.pcap.gz'
p138
aS'https://aa1603@georgetown.edu:amit1234@data.caida.org/datasets/passive-2015/equinix-chicago/20150521-130000.UTC/equinix-chicago.dirA.20150521-130900.UTC.anon.pcap.gz'
p139
aS'https://aa1603@georgetown.edu:amit1234@data.caida.org/datasets/passive-2015/equinix-chicago/20150521-130000.UTC/equinix-chicago.dirA.20150521-131000.UTC.anon.pcap.gz'
p140
aS'https://aa1603@georgetown.edu:amit1234@data.caida.org/datasets/passive-2015/equinix-chicago/20150521-130000.UTC/equinix-chicago.dirA.20150521-131100.UTC.anon.pcap.gz'
p141
aS'https://aa1603@georgetown.edu:amit1234@data.caida.org/datasets/passive-2015/equinix-chicago/20150521-130000.UTC/equinix-chicago.dirA.20150521-131200.UTC.anon.pcap.gz'
p142
aS'https://aa1603@georgetown.edu:amit1234@data.caida.org/datasets/passive-2015/equinix-chicago/20150521-130000.UTC/equinix-chicago.dirA.20150521-131300.UTC.anon.pcap.gz'
p143
aS'https://aa1603@georgetown.edu:amit1234@data.caida.org/datasets/passive-2015/equinix-chicago/20150521-130000.UTC/equinix-chicago.dirA.20150521-131400.UTC.anon.pcap.gz'
p144
aS'https://aa1603@georgetown.edu:amit1234@data.caida.org/datasets/passive-2015/equinix-chicago/20150521-130000.UTC/equinix-chicago.dirA.20150521-131500.UTC.anon.pcap.gz'
p145
aS'https://aa1603@georgetown.edu:amit1234@data.caida.org/datasets/passive-2015/equinix-chicago/20150521-130000.UTC/equinix-chicago.dirA.20150521-131600.UTC.anon.pcap.gz'
p146
aS'https://aa1603@georgetown.edu:amit1234@data.caida.org/datasets/passive-2015/equinix-chicago/20150521-130000.UTC/equinix-chicago.dirA.20150521-131700.UTC.anon.pcap.gz'
p147
aS'https://aa1603@georgetown.edu:amit1234@data.caida.org/datasets/passive-2015/equinix-chicago/20150521-130000.UTC/equinix-chicago.dirA.20150521-131800.UTC.anon.pcap.gz'
p148
aS'https://aa1603@georgetown.edu:amit1234@data.caida.org/datasets/passive-2015/equinix-chicago/20150521-130000.UTC/equinix-chicago.dirA.20150521-131900.UTC.anon.pcap.gz'
p149
aS'https://aa1603@georgetown.edu:amit1234@data.caida.org/datasets/passive-2015/equinix-chicago/20150521-130000.UTC/equinix-chicago.dirA.20150521-132000.UTC.anon.pcap.gz'
p150
aS'https://aa1603@georgetown.edu:amit1234@data.caida.org/datasets/passive-2015/equinix-chicago/20150521-130000.UTC/equinix-chicago.dirA.20150521-132100.UTC.anon.pcap.gz'
p151
aS'https://aa1603@georgetown.edu:amit1234@data.caida.org/datasets/passive-2015/equinix-chicago/20150521-130000.UTC/equinix-chicago.dirA.20150521-132200.UTC.anon.pcap.gz'
p152
aS'https://aa1603@georgetown.edu:amit1234@data.caida.org/datasets/passive-2015/equinix-chicago/20150521-130000.UTC/equinix-chicago.dirA.20150521-132300.UTC.anon.pcap.gz'
p153
aS'https://aa1603@georgetown.edu:amit1234@data.caida.org/datasets/passive-2015/equinix-chicago/20150521-130000.UTC/equinix-chicago.dirA.20150521-132400.UTC.anon.pcap.gz'
p154
aS'https://aa1603@georgetown.edu:amit1234@data.caida.org/datasets/passive-2015/equinix-chicago/20150521-130000.UTC/equinix-chicago.dirA.20150521-132500.UTC.anon.pcap.gz'
p155
aS'https://aa1603@georgetown.edu:amit1234@data.caida.org/datasets/passive-2015/equinix-chicago/20150521-130000.UTC/equinix-chicago.dirA.20150521-132600.UTC.anon.pcap.gz'
p156
aS'https://aa1603@georgetown.edu:amit1234@data.caida.org/datasets/passive-2015/equinix-chicago/20150521-130000.UTC/equinix-chicago.dirA.20150521-132700.UTC.anon.pcap.gz'
p157
aS'https://aa1603@georgetown.edu:amit1234@data.caida.org/datasets/passive-2015/equinix-chicago/20150521-130000.UTC/equinix-chicago.dirA.20150521-132800.UTC.anon.pcap.gz'
p158
aS'https://aa1603@georgetown.edu:amit1234@data.caida.org/datasets/passive-2015/equinix-chicago/20150521-130000.UTC/equinix-chicago.dirA.20150521-132900.UTC.anon.pcap.gz'
p159
aS'https://aa1603@georgetown.edu:amit1234@data.caida.org/datasets/passive-2015/equinix-chicago/20150521-130000.UTC/equinix-chicago.dirA.20150521-133000.UTC.anon.pcap.gz'
p160
aS'https://aa1603@georgetown.edu:amit1234@data.caida.org/datasets/passive-2015/equinix-chicago/20150521-130000.UTC/equinix-chicago.dirA.20150521-133100.UTC.anon.pcap.gz'
p161
aS'https://aa1603@georgetown.edu:amit1234@data.caida.org/datasets/passive-2015/equinix-chicago/20150521-130000.UTC/equinix-chicago.dirA.20150521-133200.UTC.anon.pcap.gz'
p162
aS'https://aa1603@georgetown.edu:amit1234@data.caida.org/datasets/passive-2015/equinix-chicago/20150521-130000.UTC/equinix-chicago.dirA.20150521-133300.UTC.anon.pcap.gz'
p163
aS'https://aa1603@georgetown.edu:amit1234@data.caida.org/datasets/passive-2015/equinix-chicago/20150521-130000.UTC/equinix-chicago.dirA.20150521-133400.UTC.anon.pcap.gz'
p164
aS'https://aa1603@georgetown.edu:amit1234@data.caida.org/datasets/passive-2015/equinix-chicago/20150521-130000.UTC/equinix-chicago.dirA.20150521-133500.UTC.anon.pcap.gz'
p165
aS'https://aa1603@georgetown.edu:amit1234@data.caida.org/datasets/passive-2015/equinix-chicago/20150521-130000.UTC/equinix-chicago.dirA.20150521-133600.UTC.anon.pcap.gz'
p166
aS'https://aa1603@georgetown.edu:amit1234@data.caida.org/datasets/passive-2015/equinix-chicago/20150521-130000.UTC/equinix-chicago.dirA.20150521-133700.UTC.anon.pcap.gz'
p167
aS'https://aa1603@georgetown.edu:amit1234@data.caida.org/datasets/passive-2015/equinix-chicago/20150521-130000.UTC/equinix-chicago.dirA.20150521-133800.UTC.anon.pcap.gz'
p168
aS'https://aa1603@georgetown.edu:amit1234@data.caida.org/datasets/passive-2015/equinix-chicago/20150521-130000.UTC/equinix-chicago.dirA.20150521-133900.UTC.anon.pcap.gz'
p169
aS'https://aa1603@georgetown.edu:amit1234@data.caida.org/datasets/passive-2015/equinix-chicago/20150521-130000.UTC/equinix-chicago.dirA.20150521-134000.UTC.anon.pcap.gz'
p170
aS'https://aa1603@georgetown.edu:amit1234@data.caida.org/datasets/passive-2015/equinix-chicago/20150521-130000.UTC/equinix-chicago.dirA.20150521-134100.UTC.anon.pcap.gz'
p171
aS'https://aa1603@georgetown.edu:amit1234@data.caida.org/datasets/passive-2015/equinix-chicago/20150521-130000.UTC/equinix-chicago.dirA.20150521-134200.UTC.anon.pcap.gz'
p172
aS'https://aa1603@georgetown.edu:amit1234@data.caida.org/datasets/passive-2015/equinix-chicago/20150521-130000.UTC/equinix-chicago.dirA.20150521-134300.UTC.anon.pcap.gz'
p173
aS'https://aa1603@georgetown.edu:amit1234@data.caida.org/datasets/passive-2015/equinix-chicago/20150521-130000.UTC/equinix-chicago.dirA.20150521-134400.UTC.anon.pcap.gz'
p174
aS'https://aa1603@georgetown.edu:amit1234@data.caida.org/datasets/passive-2015/equinix-chicago/20150521-130000.UTC/equinix-chicago.dirA.20150521-134500.UTC.anon.pcap.gz'
p175
aS'https://aa1603@georgetown.edu:amit1234@data.caida.org/datasets/passive-2015/equinix-chicago/20150521-130000.UTC/equinix-chicago.dirA.20150521-134600.UTC.anon.pcap.gz'
p176
aS'https://aa1603@georgetown.edu:amit1234@data.caida.org/datasets/passive-2015/equinix-chicago/20150521-130000.UTC/equinix-chicago.dirA.20150521-134700.UTC.anon.pcap.gz'
p177
aS'https://aa1603@georgetown.edu:amit1234@data.caida.org/datasets/passive-2015/equinix-chicago/20150521-130000.UTC/equinix-chicago.dirA.20150521-134800.UTC.anon.pcap.gz'
p178
aS'https://aa1603@georgetown.edu:amit1234@data.caida.org/datasets/passive-2015/equinix-chicago/20150521-130000.UTC/equinix-chicago.dirA.20150521-134900.UTC.anon.pcap.gz'
p179
aS'https://aa1603@georgetown.edu:amit1234@data.caida.org/datasets/passive-2015/equinix-chicago/20150521-130000.UTC/equinix-chicago.dirA.20150521-135000.UTC.anon.pcap.gz'
p180
aS'https://aa1603@georgetown.edu:amit1234@data.caida.org/datasets/passive-2015/equinix-chicago/20150521-130000.UTC/equinix-chicago.dirA.20150521-135100.UTC.anon.pcap.gz'
p181
aS'https://aa1603@georgetown.edu:amit1234@data.caida.org/datasets/passive-2015/equinix-chicago/20150521-130000.UTC/equinix-chicago.dirA.20150521-135200.UTC.anon.pcap.gz'
p182
aS'https://aa1603@georgetown.edu:amit1234@data.caida.org/datasets/passive-2015/equinix-chicago/20150521-130000.UTC/equinix-chicago.dirA.20150521-135300.UTC.anon.pcap.gz'
p183
aS'https://aa1603@georgetown.edu:amit1234@data.caida.org/datasets/passive-2015/equinix-chicago/20150521-130000.UTC/equinix-chicago.dirA.20150521-135400.UTC.anon.pcap.gz'
p184
aS'https://aa1603@georgetown.edu:amit1234@data.caida.org/datasets/passive-2015/equinix-chicago/20150521-130000.UTC/equinix-chicago.dirA.20150521-135500.UTC.anon.pcap.gz'
p185
aS'https://aa1603@georgetown.edu:amit1234@data.caida.org/datasets/passive-2015/equinix-chicago/20150521-130000.UTC/equinix-chicago.dirA.20150521-135600.UTC.anon.pcap.gz'
p186
aS'https://aa1603@georgetown.edu:amit1234@data.caida.org/datasets/passive-2015/equinix-chicago/20150521-130000.UTC/equinix-chicago.dirA.20150521-135700.UTC.anon.pcap.gz'
p187
aS'https://aa1603@georgetown.edu:amit1234@data.caida.org/datasets/passive-2015/equinix-chicago/20150521-130000.UTC/equinix-chicago.dirA.20150521-135800.UTC.anon.pcap.gz'
p188
aS'https://aa1603@georgetown.edu:amit1234@data.caida.org/datasets/passive-2015/equinix-chicago/20150521-130000.UTC/equinix-chicago.dirA.20150521-135900.UTC.anon.pcap.gz'
p189
aS'https://aa1603@georgetown.edu:amit1234@data.caida.org/datasets/passive-2015/equinix-chicago/20150521-130000.UTC/equinix-chicago.dirA.20150521-140000.UTC.anon.pcap.gz'
p190
aS'https://aa1603@georgetown.edu:amit1234@data.caida.org/datasets/passive-2015/equinix-chicago/20150521-130000.UTC/equinix-chicago.dirA.20150521-140100.UTC.anon.pcap.gz'
p191
aS'https://aa1603@georgetown.edu:amit1234@data.caida.org/datasets/passive-2015/equinix-chicago/20150521-130000.UTC/equinix-chicago.dirB.20150521-125911.UTC.anon.pcap.gz'
p192
aS'https://aa1603@georgetown.edu:amit1234@data.caida.org/datasets/passive-2015/equinix-chicago/20150521-130000.UTC/equinix-chicago.dirB.20150521-130000.UTC.anon.pcap.gz'
p193
aS'https://aa1603@georgetown.edu:amit1234@data.caida.org/datasets/passive-2015/equinix-chicago/20150521-130000.UTC/equinix-chicago.dirB.20150521-130100.UTC.anon.pcap.gz'
p194
aS'https://aa1603@georgetown.edu:amit1234@data.caida.org/datasets/passive-2015/equinix-chicago/20150521-130000.UTC/equinix-chicago.dirB.20150521-130200.UTC.anon.pcap.gz'
p195
aS'https://aa1603@georgetown.edu:amit1234@data.caida.org/datasets/passive-2015/equinix-chicago/20150521-130000.UTC/equinix-chicago.dirB.20150521-130300.UTC.anon.pcap.gz'
p196
aS'https://aa1603@georgetown.edu:amit1234@data.caida.org/datasets/passive-2015/equinix-chicago/20150521-130000.UTC/equinix-chicago.dirB.20150521-130400.UTC.anon.pcap.gz'
p197
aS'https://aa1603@georgetown.edu:amit1234@data.caida.org/datasets/passive-2015/equinix-chicago/20150521-130000.UTC/equinix-chicago.dirB.20150521-130500.UTC.anon.pcap.gz'
p198
aS'https://aa1603@georgetown.edu:amit1234@data.caida.org/datasets/passive-2015/equinix-chicago/20150521-130000.UTC/equinix-chicago.dirB.20150521-130600.UTC.anon.pcap.gz'
p199
aS'https://aa1603@georgetown.edu:amit1234@data.caida.org/datasets/passive-2015/equinix-chicago/20150521-130000.UTC/equinix-chicago.dirB.20150521-130700.UTC.anon.pcap.gz'
p200
aS'https://aa1603@georgetown.edu:amit1234@data.caida.org/datasets/passive-2015/equinix-chicago/20150521-130000.UTC/equinix-chicago.dirB.20150521-130800.UTC.anon.pcap.gz'
p201
aS'https://aa1603@georgetown.edu:amit1234@data.caida.org/datasets/passive-2015/equinix-chicago/20150521-130000.UTC/equinix-chicago.dirB.20150521-130900.UTC.anon.pcap.gz'
p202
aS'https://aa1603@georgetown.edu:amit1234@data.caida.org/datasets/passive-2015/equinix-chicago/20150521-130000.UTC/equinix-chicago.dirB.20150521-131000.UTC.anon.pcap.gz'
p203
aS'https://aa1603@georgetown.edu:amit1234@data.caida.org/datasets/passive-2015/equinix-chicago/20150521-130000.UTC/equinix-chicago.dirB.20150521-131100.UTC.anon.pcap.gz'
p204
aS'https://aa1603@georgetown.edu:amit1234@data.caida.org/datasets/passive-2015/equinix-chicago/20150521-130000.UTC/equinix-chicago.dirB.20150521-131200.UTC.anon.pcap.gz'
p205
aS'https://aa1603@georgetown.edu:amit1234@data.caida.org/datasets/passive-2015/equinix-chicago/20150521-130000.UTC/equinix-chicago.dirB.20150521-131300.UTC.anon.pcap.gz'
p206
aS'https://aa1603@georgetown.edu:amit1234@data.caida.org/datasets/passive-2015/equinix-chicago/20150521-130000.UTC/equinix-chicago.dirB.20150521-131400.UTC.anon.pcap.gz'
p207
aS'https://aa1603@georgetown.edu:amit1234@data.caida.org/datasets/passive-2015/equinix-chicago/20150521-130000.UTC/equinix-chicago.dirB.20150521-131500.UTC.anon.pcap.gz'
p208
aS'https://aa1603@georgetown.edu:amit1234@data.caida.org/datasets/passive-2015/equinix-chicago/20150521-130000.UTC/equinix-chicago.dirB.20150521-131600.UTC.anon.pcap.gz'
p209
aS'https://aa1603@georgetown.edu:amit1234@data.caida.org/datasets/passive-2015/equinix-chicago/20150521-130000.UTC/equinix-chicago.dirB.20150521-131700.UTC.anon.pcap.gz'
p210
aS'https://aa1603@georgetown.edu:amit1234@data.caida.org/datasets/passive-2015/equinix-chicago/20150521-130000.UTC/equinix-chicago.dirB.20150521-131800.UTC.anon.pcap.gz'
p211
aS'https://aa1603@georgetown.edu:amit1234@data.caida.org/datasets/passive-2015/equinix-chicago/20150521-130000.UTC/equinix-chicago.dirB.20150521-131900.UTC.anon.pcap.gz'
p212
aS'https://aa1603@georgetown.edu:amit1234@data.caida.org/datasets/passive-2015/equinix-chicago/20150521-130000.UTC/equinix-chicago.dirB.20150521-132000.UTC.anon.pcap.gz'
p213
aS'https://aa1603@georgetown.edu:amit1234@data.caida.org/datasets/passive-2015/equinix-chicago/20150521-130000.UTC/equinix-chicago.dirB.20150521-132100.UTC.anon.pcap.gz'
p214
aS'https://aa1603@georgetown.edu:amit1234@data.caida.org/datasets/passive-2015/equinix-chicago/20150521-130000.UTC/equinix-chicago.dirB.20150521-132200.UTC.anon.pcap.gz'
p215
aS'https://aa1603@georgetown.edu:amit1234@data.caida.org/datasets/passive-2015/equinix-chicago/20150521-130000.UTC/equinix-chicago.dirB.20150521-132300.UTC.anon.pcap.gz'
p216
aS'https://aa1603@georgetown.edu:amit1234@data.caida.org/datasets/passive-2015/equinix-chicago/20150521-130000.UTC/equinix-chicago.dirB.20150521-132400.UTC.anon.pcap.gz'
p217
aS'https://aa1603@georgetown.edu:amit1234@data.caida.org/datasets/passive-2015/equinix-chicago/20150521-130000.UTC/equinix-chicago.dirB.20150521-132500.UTC.anon.pcap.gz'
p218
aS'https://aa1603@georgetown.edu:amit1234@data.caida.org/datasets/passive-2015/equinix-chicago/20150521-130000.UTC/equinix-chicago.dirB.20150521-132600.UTC.anon.pcap.gz'
p219
aS'https://aa1603@georgetown.edu:amit1234@data.caida.org/datasets/passive-2015/equinix-chicago/20150521-130000.UTC/equinix-chicago.dirB.20150521-132700.UTC.anon.pcap.gz'
p220
aS'https://aa1603@georgetown.edu:amit1234@data.caida.org/datasets/passive-2015/equinix-chicago/20150521-130000.UTC/equinix-chicago.dirB.20150521-132800.UTC.anon.pcap.gz'
p221
aS'https://aa1603@georgetown.edu:amit1234@data.caida.org/datasets/passive-2015/equinix-chicago/20150521-130000.UTC/equinix-chicago.dirB.20150521-132900.UTC.anon.pcap.gz'
p222
aS'https://aa1603@georgetown.edu:amit1234@data.caida.org/datasets/passive-2015/equinix-chicago/20150521-130000.UTC/equinix-chicago.dirB.20150521-133000.UTC.anon.pcap.gz'
p223
aS'https://aa1603@georgetown.edu:amit1234@data.caida.org/datasets/passive-2015/equinix-chicago/20150521-130000.UTC/equinix-chicago.dirB.20150521-133100.UTC.anon.pcap.gz'
p224
aS'https://aa1603@georgetown.edu:amit1234@data.caida.org/datasets/passive-2015/equinix-chicago/20150521-130000.UTC/equinix-chicago.dirB.20150521-133200.UTC.anon.pcap.gz'
p225
aS'https://aa1603@georgetown.edu:amit1234@data.caida.org/datasets/passive-2015/equinix-chicago/20150521-130000.UTC/equinix-chicago.dirB.20150521-133300.UTC.anon.pcap.gz'
p226
aS'https://aa1603@georgetown.edu:amit1234@data.caida.org/datasets/passive-2015/equinix-chicago/20150521-130000.UTC/equinix-chicago.dirB.20150521-133400.UTC.anon.pcap.gz'
p227
aS'https://aa1603@georgetown.edu:amit1234@data.caida.org/datasets/passive-2015/equinix-chicago/20150521-130000.UTC/equinix-chicago.dirB.20150521-133500.UTC.anon.pcap.gz'
p228
aS'https://aa1603@georgetown.edu:amit1234@data.caida.org/datasets/passive-2015/equinix-chicago/20150521-130000.UTC/equinix-chicago.dirB.20150521-133600.UTC.anon.pcap.gz'
p229
aS'https://aa1603@georgetown.edu:amit1234@data.caida.org/datasets/passive-2015/equinix-chicago/20150521-130000.UTC/equinix-chicago.dirB.20150521-133700.UTC.anon.pcap.gz'
p230
aS'https://aa1603@georgetown.edu:amit1234@data.caida.org/datasets/passive-2015/equinix-chicago/20150521-130000.UTC/equinix-chicago.dirB.20150521-133800.UTC.anon.pcap.gz'
p231
aS'https://aa1603@georgetown.edu:amit1234@data.caida.org/datasets/passive-2015/equinix-chicago/20150521-130000.UTC/equinix-chicago.dirB.20150521-133900.UTC.anon.pcap.gz'
p232
aS'https://aa1603@georgetown.edu:amit1234@data.caida.org/datasets/passive-2015/equinix-chicago/20150521-130000.UTC/equinix-chicago.dirB.20150521-134000.UTC.anon.pcap.gz'
p233
aS'https://aa1603@georgetown.edu:amit1234@data.caida.org/datasets/passive-2015/equinix-chicago/20150521-130000.UTC/equinix-chicago.dirB.20150521-134100.UTC.anon.pcap.gz'
p234
aS'https://aa1603@georgetown.edu:amit1234@data.caida.org/datasets/passive-2015/equinix-chicago/20150521-130000.UTC/equinix-chicago.dirB.20150521-134200.UTC.anon.pcap.gz'
p235
aS'https://aa1603@georgetown.edu:amit1234@data.caida.org/datasets/passive-2015/equinix-chicago/20150521-130000.UTC/equinix-chicago.dirB.20150521-134300.UTC.anon.pcap.gz'
p236
aS'https://aa1603@georgetown.edu:amit1234@data.caida.org/datasets/passive-2015/equinix-chicago/20150521-130000.UTC/equinix-chicago.dirB.20150521-134400.UTC.anon.pcap.gz'
p237
aS'https://aa1603@georgetown.edu:amit1234@data.caida.org/datasets/passive-2015/equinix-chicago/20150521-130000.UTC/equinix-chicago.dirB.20150521-134500.UTC.anon.pcap.gz'
p238
aS'https://aa1603@georgetown.edu:amit1234@data.caida.org/datasets/passive-2015/equinix-chicago/20150521-130000.UTC/equinix-chicago.dirB.20150521-134600.UTC.anon.pcap.gz'
p239
aS'https://aa1603@georgetown.edu:amit1234@data.caida.org/datasets/passive-2015/equinix-chicago/20150521-130000.UTC/equinix-chicago.dirB.20150521-134700.UTC.anon.pcap.gz'
p240
aS'https://aa1603@georgetown.edu:amit1234@data.caida.org/datasets/passive-2015/equinix-chicago/20150521-130000.UTC/equinix-chicago.dirB.20150521-134800.UTC.anon.pcap.gz'
p241
aS'https://aa1603@georgetown.edu:amit1234@data.caida.org/datasets/passive-2015/equinix-chicago/20150521-130000.UTC/equinix-chicago.dirB.20150521-134900.UTC.anon.pcap.gz'
p242
aS'https://aa1603@georgetown.edu:amit1234@data.caida.org/datasets/passive-2015/equinix-chicago/20150521-130000.UTC/equinix-chicago.dirB.20150521-135000.UTC.anon.pcap.gz'
p243
aS'https://aa1603@georgetown.edu:amit1234@data.caida.org/datasets/passive-2015/equinix-chicago/20150521-130000.UTC/equinix-chicago.dirB.20150521-135100.UTC.anon.pcap.gz'
p244
aS'https://aa1603@georgetown.edu:amit1234@data.caida.org/datasets/passive-2015/equinix-chicago/20150521-130000.UTC/equinix-chicago.dirB.20150521-135200.UTC.anon.pcap.gz'
p245
aS'https://aa1603@georgetown.edu:amit1234@data.caida.org/datasets/passive-2015/equinix-chicago/20150521-130000.UTC/equinix-chicago.dirB.20150521-135300.UTC.anon.pcap.gz'
p246
aS'https://aa1603@georgetown.edu:amit1234@data.caida.org/datasets/passive-2015/equinix-chicago/20150521-130000.UTC/equinix-chicago.dirB.20150521-135400.UTC.anon.pcap.gz'
p247
aS'https://aa1603@georgetown.edu:amit1234@data.caida.org/datasets/passive-2015/equinix-chicago/20150521-130000.UTC/equinix-chicago.dirB.20150521-135500.UTC.anon.pcap.gz'
p248
aS'https://aa1603@georgetown.edu:amit1234@data.caida.org/datasets/passive-2015/equinix-chicago/20150521-130000.UTC/equinix-chicago.dirB.20150521-135600.UTC.anon.pcap.gz'
p249
aS'https://aa1603@georgetown.edu:amit1234@data.caida.org/datasets/passive-2015/equinix-chicago/20150521-130000.UTC/equinix-chicago.dirB.20150521-135700.UTC.anon.pcap.gz'
p250
aS'https://aa1603@georgetown.edu:amit1234@data.caida.org/datasets/passive-2015/equinix-chicago/20150521-130000.UTC/equinix-chicago.dirB.20150521-135800.UTC.anon.pcap.gz'
p251
aS'https://aa1603@georgetown.edu:amit1234@data.caida.org/datasets/passive-2015/equinix-chicago/20150521-130000.UTC/equinix-chicago.dirB.20150521-135900.UTC.anon.pcap.gz'
p252
aS'https://aa1603@georgetown.edu:amit1234@data.caida.org/datasets/passive-2015/equinix-chicago/20150521-130000.UTC/equinix-chicago.dirB.20150521-140000.UTC.anon.pcap.gz'
p253
aS'https://aa1603@georgetown.edu:amit1234@data.caida.org/datasets/passive-2015/equinix-chicago/20150521-130000.UTC/equinix-chicago.dirB.20150521-140100.UTC.anon.pcap.gz'
p254
aS'https://aa1603@georgetown.edu:amit1234@data.caida.org/datasets/passive-2015/equinix-chicago/20150917-130000.UTC/equinix-chicago.dirA.20150917-125911.UTC.anon.pcap.gz'
p255
aS'https://aa1603@georgetown.edu:amit1234@data.caida.org/datasets/passive-2015/equinix-chicago/20150917-130000.UTC/equinix-chicago.dirA.20150917-130000.UTC.anon.pcap.gz'
p256
aS'https://aa1603@georgetown.edu:amit1234@data.caida.org/datasets/passive-2015/equinix-chicago/20150917-130000.UTC/equinix-chicago.dirA.20150917-130100.UTC.anon.pcap.gz'
p257
aS'https://aa1603@georgetown.edu:amit1234@data.caida.org/datasets/passive-2015/equinix-chicago/20150917-130000.UTC/equinix-chicago.dirA.20150917-130200.UTC.anon.pcap.gz'
p258
aS'https://aa1603@georgetown.edu:amit1234@data.caida.org/datasets/passive-2015/equinix-chicago/20150917-130000.UTC/equinix-chicago.dirA.20150917-130300.UTC.anon.pcap.gz'
p259
aS'https://aa1603@georgetown.edu:amit1234@data.caida.org/datasets/passive-2015/equinix-chicago/20150917-130000.UTC/equinix-chicago.dirA.20150917-130400.UTC.anon.pcap.gz'
p260
aS'https://aa1603@georgetown.edu:amit1234@data.caida.org/datasets/passive-2015/equinix-chicago/20150917-130000.UTC/equinix-chicago.dirA.20150917-130500.UTC.anon.pcap.gz'
p261
aS'https://aa1603@georgetown.edu:amit1234@data.caida.org/datasets/passive-2015/equinix-chicago/20150917-130000.UTC/equinix-chicago.dirA.20150917-130600.UTC.anon.pcap.gz'
p262
aS'https://aa1603@georgetown.edu:amit1234@data.caida.org/datasets/passive-2015/equinix-chicago/20150917-130000.UTC/equinix-chicago.dirA.20150917-130700.UTC.anon.pcap.gz'
p263
aS'https://aa1603@georgetown.edu:amit1234@data.caida.org/datasets/passive-2015/equinix-chicago/20150917-130000.UTC/equinix-chicago.dirA.20150917-130800.UTC.anon.pcap.gz'
p264
aS'https://aa1603@georgetown.edu:amit1234@data.caida.org/datasets/passive-2015/equinix-chicago/20150917-130000.UTC/equinix-chicago.dirA.20150917-130900.UTC.anon.pcap.gz'
p265
aS'https://aa1603@georgetown.edu:amit1234@data.caida.org/datasets/passive-2015/equinix-chicago/20150917-130000.UTC/equinix-chicago.dirA.20150917-131000.UTC.anon.pcap.gz'
p266
aS'https://aa1603@georgetown.edu:amit1234@data.caida.org/datasets/passive-2015/equinix-chicago/20150917-130000.UTC/equinix-chicago.dirA.20150917-131100.UTC.anon.pcap.gz'
p267
aS'https://aa1603@georgetown.edu:amit1234@data.caida.org/datasets/passive-2015/equinix-chicago/20150917-130000.UTC/equinix-chicago.dirA.20150917-131200.UTC.anon.pcap.gz'
p268
aS'https://aa1603@georgetown.edu:amit1234@data.caida.org/datasets/passive-2015/equinix-chicago/20150917-130000.UTC/equinix-chicago.dirA.20150917-131300.UTC.anon.pcap.gz'
p269
aS'https://aa1603@georgetown.edu:amit1234@data.caida.org/datasets/passive-2015/equinix-chicago/20150917-130000.UTC/equinix-chicago.dirA.20150917-131400.UTC.anon.pcap.gz'
p270
aS'https://aa1603@georgetown.edu:amit1234@data.caida.org/datasets/passive-2015/equinix-chicago/20150917-130000.UTC/equinix-chicago.dirA.20150917-131500.UTC.anon.pcap.gz'
p271
aS'https://aa1603@georgetown.edu:amit1234@data.caida.org/datasets/passive-2015/equinix-chicago/20150917-130000.UTC/equinix-chicago.dirA.20150917-131600.UTC.anon.pcap.gz'
p272
aS'https://aa1603@georgetown.edu:amit1234@data.caida.org/datasets/passive-2015/equinix-chicago/20150917-130000.UTC/equinix-chicago.dirA.20150917-131700.UTC.anon.pcap.gz'
p273
aS'https://aa1603@georgetown.edu:amit1234@data.caida.org/datasets/passive-2015/equinix-chicago/20150917-130000.UTC/equinix-chicago.dirA.20150917-131800.UTC.anon.pcap.gz'
p274
aS'https://aa1603@georgetown.edu:amit1234@data.caida.org/datasets/passive-2015/equinix-chicago/20150917-130000.UTC/equinix-chicago.dirA.20150917-131900.UTC.anon.pcap.gz'
p275
aS'https://aa1603@georgetown.edu:amit1234@data.caida.org/datasets/passive-2015/equinix-chicago/20150917-130000.UTC/equinix-chicago.dirA.20150917-132000.UTC.anon.pcap.gz'
p276
aS'https://aa1603@georgetown.edu:amit1234@data.caida.org/datasets/passive-2015/equinix-chicago/20150917-130000.UTC/equinix-chicago.dirA.20150917-132100.UTC.anon.pcap.gz'
p277
aS'https://aa1603@georgetown.edu:amit1234@data.caida.org/datasets/passive-2015/equinix-chicago/20150917-130000.UTC/equinix-chicago.dirA.20150917-132200.UTC.anon.pcap.gz'
p278
aS'https://aa1603@georgetown.edu:amit1234@data.caida.org/datasets/passive-2015/equinix-chicago/20150917-130000.UTC/equinix-chicago.dirA.20150917-132300.UTC.anon.pcap.gz'
p279
aS'https://aa1603@georgetown.edu:amit1234@data.caida.org/datasets/passive-2015/equinix-chicago/20150917-130000.UTC/equinix-chicago.dirA.20150917-132400.UTC.anon.pcap.gz'
p280
aS'https://aa1603@georgetown.edu:amit1234@data.caida.org/datasets/passive-2015/equinix-chicago/20150917-130000.UTC/equinix-chicago.dirA.20150917-132500.UTC.anon.pcap.gz'
p281
aS'https://aa1603@georgetown.edu:amit1234@data.caida.org/datasets/passive-2015/equinix-chicago/20150917-130000.UTC/equinix-chicago.dirA.20150917-132600.UTC.anon.pcap.gz'
p282
aS'https://aa1603@georgetown.edu:amit1234@data.caida.org/datasets/passive-2015/equinix-chicago/20150917-130000.UTC/equinix-chicago.dirA.20150917-132700.UTC.anon.pcap.gz'
p283
aS'https://aa1603@georgetown.edu:amit1234@data.caida.org/datasets/passive-2015/equinix-chicago/20150917-130000.UTC/equinix-chicago.dirA.20150917-132800.UTC.anon.pcap.gz'
p284
aS'https://aa1603@georgetown.edu:amit1234@data.caida.org/datasets/passive-2015/equinix-chicago/20150917-130000.UTC/equinix-chicago.dirA.20150917-132900.UTC.anon.pcap.gz'
p285
aS'https://aa1603@georgetown.edu:amit1234@data.caida.org/datasets/passive-2015/equinix-chicago/20150917-130000.UTC/equinix-chicago.dirA.20150917-133000.UTC.anon.pcap.gz'
p286
aS'https://aa1603@georgetown.edu:amit1234@data.caida.org/datasets/passive-2015/equinix-chicago/20150917-130000.UTC/equinix-chicago.dirA.20150917-133100.UTC.anon.pcap.gz'
p287
aS'https://aa1603@georgetown.edu:amit1234@data.caida.org/datasets/passive-2015/equinix-chicago/20150917-130000.UTC/equinix-chicago.dirA.20150917-133200.UTC.anon.pcap.gz'
p288
aS'https://aa1603@georgetown.edu:amit1234@data.caida.org/datasets/passive-2015/equinix-chicago/20150917-130000.UTC/equinix-chicago.dirA.20150917-133300.UTC.anon.pcap.gz'
p289
aS'https://aa1603@georgetown.edu:amit1234@data.caida.org/datasets/passive-2015/equinix-chicago/20150917-130000.UTC/equinix-chicago.dirA.20150917-133400.UTC.anon.pcap.gz'
p290
aS'https://aa1603@georgetown.edu:amit1234@data.caida.org/datasets/passive-2015/equinix-chicago/20150917-130000.UTC/equinix-chicago.dirA.20150917-133500.UTC.anon.pcap.gz'
p291
aS'https://aa1603@georgetown.edu:amit1234@data.caida.org/datasets/passive-2015/equinix-chicago/20150917-130000.UTC/equinix-chicago.dirA.20150917-133600.UTC.anon.pcap.gz'
p292
aS'https://aa1603@georgetown.edu:amit1234@data.caida.org/datasets/passive-2015/equinix-chicago/20150917-130000.UTC/equinix-chicago.dirA.20150917-133700.UTC.anon.pcap.gz'
p293
aS'https://aa1603@georgetown.edu:amit1234@data.caida.org/datasets/passive-2015/equinix-chicago/20150917-130000.UTC/equinix-chicago.dirA.20150917-133800.UTC.anon.pcap.gz'
p294
aS'https://aa1603@georgetown.edu:amit1234@data.caida.org/datasets/passive-2015/equinix-chicago/20150917-130000.UTC/equinix-chicago.dirA.20150917-133900.UTC.anon.pcap.gz'
p295
aS'https://aa1603@georgetown.edu:amit1234@data.caida.org/datasets/passive-2015/equinix-chicago/20150917-130000.UTC/equinix-chicago.dirA.20150917-134000.UTC.anon.pcap.gz'
p296
aS'https://aa1603@georgetown.edu:amit1234@data.caida.org/datasets/passive-2015/equinix-chicago/20150917-130000.UTC/equinix-chicago.dirA.20150917-134100.UTC.anon.pcap.gz'
p297
aS'https://aa1603@georgetown.edu:amit1234@data.caida.org/datasets/passive-2015/equinix-chicago/20150917-130000.UTC/equinix-chicago.dirA.20150917-134200.UTC.anon.pcap.gz'
p298
aS'https://aa1603@georgetown.edu:amit1234@data.caida.org/datasets/passive-2015/equinix-chicago/20150917-130000.UTC/equinix-chicago.dirA.20150917-134300.UTC.anon.pcap.gz'
p299
aS'https://aa1603@georgetown.edu:amit1234@data.caida.org/datasets/passive-2015/equinix-chicago/20150917-130000.UTC/equinix-chicago.dirA.20150917-134400.UTC.anon.pcap.gz'
p300
aS'https://aa1603@georgetown.edu:amit1234@data.caida.org/datasets/passive-2015/equinix-chicago/20150917-130000.UTC/equinix-chicago.dirA.20150917-134500.UTC.anon.pcap.gz'
p301
aS'https://aa1603@georgetown.edu:amit1234@data.caida.org/datasets/passive-2015/equinix-chicago/20150917-130000.UTC/equinix-chicago.dirA.20150917-134600.UTC.anon.pcap.gz'
p302
aS'https://aa1603@georgetown.edu:amit1234@data.caida.org/datasets/passive-2015/equinix-chicago/20150917-130000.UTC/equinix-chicago.dirA.20150917-134700.UTC.anon.pcap.gz'
p303
aS'https://aa1603@georgetown.edu:amit1234@data.caida.org/datasets/passive-2015/equinix-chicago/20150917-130000.UTC/equinix-chicago.dirA.20150917-134800.UTC.anon.pcap.gz'
p304
aS'https://aa1603@georgetown.edu:amit1234@data.caida.org/datasets/passive-2015/equinix-chicago/20150917-130000.UTC/equinix-chicago.dirA.20150917-134900.UTC.anon.pcap.gz'
p305
aS'https://aa1603@georgetown.edu:amit1234@data.caida.org/datasets/passive-2015/equinix-chicago/20150917-130000.UTC/equinix-chicago.dirA.20150917-135000.UTC.anon.pcap.gz'
p306
aS'https://aa1603@georgetown.edu:amit1234@data.caida.org/datasets/passive-2015/equinix-chicago/20150917-130000.UTC/equinix-chicago.dirA.20150917-135100.UTC.anon.pcap.gz'
p307
aS'https://aa1603@georgetown.edu:amit1234@data.caida.org/datasets/passive-2015/equinix-chicago/20150917-130000.UTC/equinix-chicago.dirA.20150917-135200.UTC.anon.pcap.gz'
p308
aS'https://aa1603@georgetown.edu:amit1234@data.caida.org/datasets/passive-2015/equinix-chicago/20150917-130000.UTC/equinix-chicago.dirA.20150917-135300.UTC.anon.pcap.gz'
p309
aS'https://aa1603@georgetown.edu:amit1234@data.caida.org/datasets/passive-2015/equinix-chicago/20150917-130000.UTC/equinix-chicago.dirA.20150917-135400.UTC.anon.pcap.gz'
p310
aS'https://aa1603@georgetown.edu:amit1234@data.caida.org/datasets/passive-2015/equinix-chicago/20150917-130000.UTC/equinix-chicago.dirA.20150917-135500.UTC.anon.pcap.gz'
p311
aS'https://aa1603@georgetown.edu:amit1234@data.caida.org/datasets/passive-2015/equinix-chicago/20150917-130000.UTC/equinix-chicago.dirA.20150917-135600.UTC.anon.pcap.gz'
p312
aS'https://aa1603@georgetown.edu:amit1234@data.caida.org/datasets/passive-2015/equinix-chicago/20150917-130000.UTC/equinix-chicago.dirA.20150917-135700.UTC.anon.pcap.gz'
p313
aS'https://aa1603@georgetown.edu:amit1234@data.caida.org/datasets/passive-2015/equinix-chicago/20150917-130000.UTC/equinix-chicago.dirA.20150917-135800.UTC.anon.pcap.gz'
p314
aS'https://aa1603@georgetown.edu:amit1234@data.caida.org/datasets/passive-2015/equinix-chicago/20150917-130000.UTC/equinix-chicago.dirA.20150917-135900.UTC.anon.pcap.gz'
p315
aS'https://aa1603@georgetown.edu:amit1234@data.caida.org/datasets/passive-2015/equinix-chicago/20150917-130000.UTC/equinix-chicago.dirA.20150917-140000.UTC.anon.pcap.gz'
p316
aS'https://aa1603@georgetown.edu:amit1234@data.caida.org/datasets/passive-2015/equinix-chicago/20150917-130000.UTC/equinix-chicago.dirA.20150917-140100.UTC.anon.pcap.gz'
p317
aS'https://aa1603@georgetown.edu:amit1234@data.caida.org/datasets/passive-2015/equinix-chicago/20150917-130000.UTC/equinix-chicago.dirB.20150917-125911.UTC.anon.pcap.gz'
p318
aS'https://aa1603@georgetown.edu:amit1234@data.caida.org/datasets/passive-2015/equinix-chicago/20150917-130000.UTC/equinix-chicago.dirB.20150917-130000.UTC.anon.pcap.gz'
p319
aS'https://aa1603@georgetown.edu:amit1234@data.caida.org/datasets/passive-2015/equinix-chicago/20150917-130000.UTC/equinix-chicago.dirB.20150917-130100.UTC.anon.pcap.gz'
p320
aS'https://aa1603@georgetown.edu:amit1234@data.caida.org/datasets/passive-2015/equinix-chicago/20150917-130000.UTC/equinix-chicago.dirB.20150917-130200.UTC.anon.pcap.gz'
p321
aS'https://aa1603@georgetown.edu:amit1234@data.caida.org/datasets/passive-2015/equinix-chicago/20150917-130000.UTC/equinix-chicago.dirB.20150917-130300.UTC.anon.pcap.gz'
p322
aS'https://aa1603@georgetown.edu:amit1234@data.caida.org/datasets/passive-2015/equinix-chicago/20150917-130000.UTC/equinix-chicago.dirB.20150917-130400.UTC.anon.pcap.gz'
p323
aS'https://aa1603@georgetown.edu:amit1234@data.caida.org/datasets/passive-2015/equinix-chicago/20150917-130000.UTC/equinix-chicago.dirB.20150917-130500.UTC.anon.pcap.gz'
p324
aS'https://aa1603@georgetown.edu:amit1234@data.caida.org/datasets/passive-2015/equinix-chicago/20150917-130000.UTC/equinix-chicago.dirB.20150917-130600.UTC.anon.pcap.gz'
p325
aS'https://aa1603@georgetown.edu:amit1234@data.caida.org/datasets/passive-2015/equinix-chicago/20150917-130000.UTC/equinix-chicago.dirB.20150917-130700.UTC.anon.pcap.gz'
p326
aS'https://aa1603@georgetown.edu:amit1234@data.caida.org/datasets/passive-2015/equinix-chicago/20150917-130000.UTC/equinix-chicago.dirB.20150917-130800.UTC.anon.pcap.gz'
p327
aS'https://aa1603@georgetown.edu:amit1234@data.caida.org/datasets/passive-2015/equinix-chicago/20150917-130000.UTC/equinix-chicago.dirB.20150917-130900.UTC.anon.pcap.gz'
p328
aS'https://aa1603@georgetown.edu:amit1234@data.caida.org/datasets/passive-2015/equinix-chicago/20150917-130000.UTC/equinix-chicago.dirB.20150917-131000.UTC.anon.pcap.gz'
p329
aS'https://aa1603@georgetown.edu:amit1234@data.caida.org/datasets/passive-2015/equinix-chicago/20150917-130000.UTC/equinix-chicago.dirB.20150917-131100.UTC.anon.pcap.gz'
p330
aS'https://aa1603@georgetown.edu:amit1234@data.caida.org/datasets/passive-2015/equinix-chicago/20150917-130000.UTC/equinix-chicago.dirB.20150917-131200.UTC.anon.pcap.gz'
p331
aS'https://aa1603@georgetown.edu:amit1234@data.caida.org/datasets/passive-2015/equinix-chicago/20150917-130000.UTC/equinix-chicago.dirB.20150917-131300.UTC.anon.pcap.gz'
p332
aS'https://aa1603@georgetown.edu:amit1234@data.caida.org/datasets/passive-2015/equinix-chicago/20150917-130000.UTC/equinix-chicago.dirB.20150917-131400.UTC.anon.pcap.gz'
p333
aS'https://aa1603@georgetown.edu:amit1234@data.caida.org/datasets/passive-2015/equinix-chicago/20150917-130000.UTC/equinix-chicago.dirB.20150917-131500.UTC.anon.pcap.gz'
p334
aS'https://aa1603@georgetown.edu:amit1234@data.caida.org/datasets/passive-2015/equinix-chicago/20150917-130000.UTC/equinix-chicago.dirB.20150917-131600.UTC.anon.pcap.gz'
p335
aS'https://aa1603@georgetown.edu:amit1234@data.caida.org/datasets/passive-2015/equinix-chicago/20150917-130000.UTC/equinix-chicago.dirB.20150917-131700.UTC.anon.pcap.gz'
p336
aS'https://aa1603@georgetown.edu:amit1234@data.caida.org/datasets/passive-2015/equinix-chicago/20150917-130000.UTC/equinix-chicago.dirB.20150917-131800.UTC.anon.pcap.gz'
p337
aS'https://aa1603@georgetown.edu:amit1234@data.caida.org/datasets/passive-2015/equinix-chicago/20150917-130000.UTC/equinix-chicago.dirB.20150917-131900.UTC.anon.pcap.gz'
p338
aS'https://aa1603@georgetown.edu:amit1234@data.caida.org/datasets/passive-2015/equinix-chicago/20150917-130000.UTC/equinix-chicago.dirB.20150917-132000.UTC.anon.pcap.gz'
p339
aS'https://aa1603@georgetown.edu:amit1234@data.caida.org/datasets/passive-2015/equinix-chicago/20150917-130000.UTC/equinix-chicago.dirB.20150917-132100.UTC.anon.pcap.gz'
p340
aS'https://aa1603@georgetown.edu:amit1234@data.caida.org/datasets/passive-2015/equinix-chicago/20150917-130000.UTC/equinix-chicago.dirB.20150917-132200.UTC.anon.pcap.gz'
p341
aS'https://aa1603@georgetown.edu:amit1234@data.caida.org/datasets/passive-2015/equinix-chicago/20150917-130000.UTC/equinix-chicago.dirB.20150917-132300.UTC.anon.pcap.gz'
p342
aS'https://aa1603@georgetown.edu:amit1234@data.caida.org/datasets/passive-2015/equinix-chicago/20150917-130000.UTC/equinix-chicago.dirB.20150917-132400.UTC.anon.pcap.gz'
p343
aS'https://aa1603@georgetown.edu:amit1234@data.caida.org/datasets/passive-2015/equinix-chicago/20150917-130000.UTC/equinix-chicago.dirB.20150917-132500.UTC.anon.pcap.gz'
p344
aS'https://aa1603@georgetown.edu:amit1234@data.caida.org/datasets/passive-2015/equinix-chicago/20150917-130000.UTC/equinix-chicago.dirB.20150917-132600.UTC.anon.pcap.gz'
p345
aS'https://aa1603@georgetown.edu:amit1234@data.caida.org/datasets/passive-2015/equinix-chicago/20150917-130000.UTC/equinix-chicago.dirB.20150917-132700.UTC.anon.pcap.gz'
p346
aS'https://aa1603@georgetown.edu:amit1234@data.caida.org/datasets/passive-2015/equinix-chicago/20150917-130000.UTC/equinix-chicago.dirB.20150917-132800.UTC.anon.pcap.gz'
p347
aS'https://aa1603@georgetown.edu:amit1234@data.caida.org/datasets/passive-2015/equinix-chicago/20150917-130000.UTC/equinix-chicago.dirB.20150917-132900.UTC.anon.pcap.gz'
p348
aS'https://aa1603@georgetown.edu:amit1234@data.caida.org/datasets/passive-2015/equinix-chicago/20150917-130000.UTC/equinix-chicago.dirB.20150917-133000.UTC.anon.pcap.gz'
p349
aS'https://aa1603@georgetown.edu:amit1234@data.caida.org/datasets/passive-2015/equinix-chicago/20150917-130000.UTC/equinix-chicago.dirB.20150917-133100.UTC.anon.pcap.gz'
p350
aS'https://aa1603@georgetown.edu:amit1234@data.caida.org/datasets/passive-2015/equinix-chicago/20150917-130000.UTC/equinix-chicago.dirB.20150917-133200.UTC.anon.pcap.gz'
p351
aS'https://aa1603@georgetown.edu:amit1234@data.caida.org/datasets/passive-2015/equinix-chicago/20150917-130000.UTC/equinix-chicago.dirB.20150917-133300.UTC.anon.pcap.gz'
p352
aS'https://aa1603@georgetown.edu:amit1234@data.caida.org/datasets/passive-2015/equinix-chicago/20150917-130000.UTC/equinix-chicago.dirB.20150917-133400.UTC.anon.pcap.gz'
p353
aS'https://aa1603@georgetown.edu:amit1234@data.caida.org/datasets/passive-2015/equinix-chicago/20150917-130000.UTC/equinix-chicago.dirB.20150917-133500.UTC.anon.pcap.gz'
p354
aS'https://aa1603@georgetown.edu:amit1234@data.caida.org/datasets/passive-2015/equinix-chicago/20150917-130000.UTC/equinix-chicago.dirB.20150917-133600.UTC.anon.pcap.gz'
p355
aS'https://aa1603@georgetown.edu:amit1234@data.caida.org/datasets/passive-2015/equinix-chicago/20150917-130000.UTC/equinix-chicago.dirB.20150917-133700.UTC.anon.pcap.gz'
p356
aS'https://aa1603@georgetown.edu:amit1234@data.caida.org/datasets/passive-2015/equinix-chicago/20150917-130000.UTC/equinix-chicago.dirB.20150917-133800.UTC.anon.pcap.gz'
p357
aS'https://aa1603@georgetown.edu:amit1234@data.caida.org/datasets/passive-2015/equinix-chicago/20150917-130000.UTC/equinix-chicago.dirB.20150917-133900.UTC.anon.pcap.gz'
p358
aS'https://aa1603@georgetown.edu:amit1234@data.caida.org/datasets/passive-2015/equinix-chicago/20150917-130000.UTC/equinix-chicago.dirB.20150917-134000.UTC.anon.pcap.gz'
p359
aS'https://aa1603@georgetown.edu:amit1234@data.caida.org/datasets/passive-2015/equinix-chicago/20150917-130000.UTC/equinix-chicago.dirB.20150917-134100.UTC.anon.pcap.gz'
p360
aS'https://aa1603@georgetown.edu:amit1234@data.caida.org/datasets/passive-2015/equinix-chicago/20150917-130000.UTC/equinix-chicago.dirB.20150917-134200.UTC.anon.pcap.gz'
p361
aS'https://aa1603@georgetown.edu:amit1234@data.caida.org/datasets/passive-2015/equinix-chicago/20150917-130000.UTC/equinix-chicago.dirB.20150917-134300.UTC.anon.pcap.gz'
p362
aS'https://aa1603@georgetown.edu:amit1234@data.caida.org/datasets/passive-2015/equinix-chicago/20150917-130000.UTC/equinix-chicago.dirB.20150917-134400.UTC.anon.pcap.gz'
p363
aS'https://aa1603@georgetown.edu:amit1234@data.caida.org/datasets/passive-2015/equinix-chicago/20150917-130000.UTC/equinix-chicago.dirB.20150917-134500.UTC.anon.pcap.gz'
p364
aS'https://aa1603@georgetown.edu:amit1234@data.caida.org/datasets/passive-2015/equinix-chicago/20150917-130000.UTC/equinix-chicago.dirB.20150917-134600.UTC.anon.pcap.gz'
p365
aS'https://aa1603@georgetown.edu:amit1234@data.caida.org/datasets/passive-2015/equinix-chicago/20150917-130000.UTC/equinix-chicago.dirB.20150917-134700.UTC.anon.pcap.gz'
p366
aS'https://aa1603@georgetown.edu:amit1234@data.caida.org/datasets/passive-2015/equinix-chicago/20150917-130000.UTC/equinix-chicago.dirB.20150917-134800.UTC.anon.pcap.gz'
p367
aS'https://aa1603@georgetown.edu:amit1234@data.caida.org/datasets/passive-2015/equinix-chicago/20150917-130000.UTC/equinix-chicago.dirB.20150917-134900.UTC.anon.pcap.gz'
p368
aS'https://aa1603@georgetown.edu:amit1234@data.caida.org/datasets/passive-2015/equinix-chicago/20150917-130000.UTC/equinix-chicago.dirB.20150917-135000.UTC.anon.pcap.gz'
p369
aS'https://aa1603@georgetown.edu:amit1234@data.caida.org/datasets/passive-2015/equinix-chicago/20150917-130000.UTC/equinix-chicago.dirB.20150917-135100.UTC.anon.pcap.gz'
p370
aS'https://aa1603@georgetown.edu:amit1234@data.caida.org/datasets/passive-2015/equinix-chicago/20150917-130000.UTC/equinix-chicago.dirB.20150917-135200.UTC.anon.pcap.gz'
p371
aS'https://aa1603@georgetown.edu:amit1234@data.caida.org/datasets/passive-2015/equinix-chicago/20150917-130000.UTC/equinix-chicago.dirB.20150917-135300.UTC.anon.pcap.gz'
p372
aS'https://aa1603@georgetown.edu:amit1234@data.caida.org/datasets/passive-2015/equinix-chicago/20150917-130000.UTC/equinix-chicago.dirB.20150917-135400.UTC.anon.pcap.gz'
p373
aS'https://aa1603@georgetown.edu:amit1234@data.caida.org/datasets/passive-2015/equinix-chicago/20150917-130000.UTC/equinix-chicago.dirB.20150917-135500.UTC.anon.pcap.gz'
p374
aS'https://aa1603@georgetown.edu:amit1234@data.caida.org/datasets/passive-2015/equinix-chicago/20150917-130000.UTC/equinix-chicago.dirB.20150917-135600.UTC.anon.pcap.gz'
p375
aS'https://aa1603@georgetown.edu:amit1234@data.caida.org/datasets/passive-2015/equinix-chicago/20150917-130000.UTC/equinix-chicago.dirB.20150917-135700.UTC.anon.pcap.gz'
p376
aS'https://aa1603@georgetown.edu:amit1234@data.caida.org/datasets/passive-2015/equinix-chicago/20150917-130000.UTC/equinix-chicago.dirB.20150917-135800.UTC.anon.pcap.gz'
p377
aS'https://aa1603@georgetown.edu:amit1234@data.caida.org/datasets/passive-2015/equinix-chicago/20150917-130000.UTC/equinix-chicago.dirB.20150917-135900.UTC.anon.pcap.gz'
p378
aS'https://aa1603@georgetown.edu:amit1234@data.caida.org/datasets/passive-2015/equinix-chicago/20150917-130000.UTC/equinix-chicago.dirB.20150917-140000.UTC.anon.pcap.gz'
p379
aS'https://aa1603@georgetown.edu:amit1234@data.caida.org/datasets/passive-2015/equinix-chicago/20150917-130000.UTC/equinix-chicago.dirB.20150917-140100.UTC.anon.pcap.gz'
p380
aS'https://aa1603@georgetown.edu:amit1234@data.caida.org/datasets/passive-2014/equinix-chicago/20140320-130000.UTC/equinix-chicago.dirA.20140320-125911.UTC.anon.pcap.gz'
p381
aS'https://aa1603@georgetown.edu:amit1234@data.caida.org/datasets/passive-2014/equinix-chicago/20140320-130000.UTC/equinix-chicago.dirA.20140320-130000.UTC.anon.pcap.gz'
p382
aS'https://aa1603@georgetown.edu:amit1234@data.caida.org/datasets/passive-2014/equinix-chicago/20140320-130000.UTC/equinix-chicago.dirA.20140320-130100.UTC.anon.pcap.gz'
p383
aS'https://aa1603@georgetown.edu:amit1234@data.caida.org/datasets/passive-2014/equinix-chicago/20140320-130000.UTC/equinix-chicago.dirA.20140320-130200.UTC.anon.pcap.gz'
p384
aS'https://aa1603@georgetown.edu:amit1234@data.caida.org/datasets/passive-2014/equinix-chicago/20140320-130000.UTC/equinix-chicago.dirA.20140320-130300.UTC.anon.pcap.gz'
p385
aS'https://aa1603@georgetown.edu:amit1234@data.caida.org/datasets/passive-2014/equinix-chicago/20140320-130000.UTC/equinix-chicago.dirA.20140320-130400.UTC.anon.pcap.gz'
p386
aS'https://aa1603@georgetown.edu:amit1234@data.caida.org/datasets/passive-2014/equinix-chicago/20140320-130000.UTC/equinix-chicago.dirA.20140320-130500.UTC.anon.pcap.gz'
p387
aS'https://aa1603@georgetown.edu:amit1234@data.caida.org/datasets/passive-2014/equinix-chicago/20140320-130000.UTC/equinix-chicago.dirA.20140320-130600.UTC.anon.pcap.gz'
p388
aS'https://aa1603@georgetown.edu:amit1234@data.caida.org/datasets/passive-2014/equinix-chicago/20140320-130000.UTC/equinix-chicago.dirA.20140320-130700.UTC.anon.pcap.gz'
p389
aS'https://aa1603@georgetown.edu:amit1234@data.caida.org/datasets/passive-2014/equinix-chicago/20140320-130000.UTC/equinix-chicago.dirA.20140320-130800.UTC.anon.pcap.gz'
p390
aS'https://aa1603@georgetown.edu:amit1234@data.caida.org/datasets/passive-2014/equinix-chicago/20140320-130000.UTC/equinix-chicago.dirA.20140320-130900.UTC.anon.pcap.gz'
p391
aS'https://aa1603@georgetown.edu:amit1234@data.caida.org/datasets/passive-2014/equinix-chicago/20140320-130000.UTC/equinix-chicago.dirA.20140320-131000.UTC.anon.pcap.gz'
p392
aS'https://aa1603@georgetown.edu:amit1234@data.caida.org/datasets/passive-2014/equinix-chicago/20140320-130000.UTC/equinix-chicago.dirA.20140320-131100.UTC.anon.pcap.gz'
p393
aS'https://aa1603@georgetown.edu:amit1234@data.caida.org/datasets/passive-2014/equinix-chicago/20140320-130000.UTC/equinix-chicago.dirA.20140320-131200.UTC.anon.pcap.gz'
p394
aS'https://aa1603@georgetown.edu:amit1234@data.caida.org/datasets/passive-2014/equinix-chicago/20140320-130000.UTC/equinix-chicago.dirA.20140320-131300.UTC.anon.pcap.gz'
p395
aS'https://aa1603@georgetown.edu:amit1234@data.caida.org/datasets/passive-2014/equinix-chicago/20140320-130000.UTC/equinix-chicago.dirA.20140320-131400.UTC.anon.pcap.gz'
p396
aS'https://aa1603@georgetown.edu:amit1234@data.caida.org/datasets/passive-2014/equinix-chicago/20140320-130000.UTC/equinix-chicago.dirA.20140320-131500.UTC.anon.pcap.gz'
p397
aS'https://aa1603@georgetown.edu:amit1234@data.caida.org/datasets/passive-2014/equinix-chicago/20140320-130000.UTC/equinix-chicago.dirA.20140320-131600.UTC.anon.pcap.gz'
p398
aS'https://aa1603@georgetown.edu:amit1234@data.caida.org/datasets/passive-2014/equinix-chicago/20140320-130000.UTC/equinix-chicago.dirA.20140320-131700.UTC.anon.pcap.gz'
p399
aS'https://aa1603@georgetown.edu:amit1234@data.caida.org/datasets/passive-2014/equinix-chicago/20140320-130000.UTC/equinix-chicago.dirA.20140320-131800.UTC.anon.pcap.gz'
p400
aS'https://aa1603@georgetown.edu:amit1234@data.caida.org/datasets/passive-2014/equinix-chicago/20140320-130000.UTC/equinix-chicago.dirA.20140320-131900.UTC.anon.pcap.gz'
p401
aS'https://aa1603@georgetown.edu:amit1234@data.caida.org/datasets/passive-2014/equinix-chicago/20140320-130000.UTC/equinix-chicago.dirA.20140320-132000.UTC.anon.pcap.gz'
p402
aS'https://aa1603@georgetown.edu:amit1234@data.caida.org/datasets/passive-2014/equinix-chicago/20140320-130000.UTC/equinix-chicago.dirA.20140320-132100.UTC.anon.pcap.gz'
p403
aS'https://aa1603@georgetown.edu:amit1234@data.caida.org/datasets/passive-2014/equinix-chicago/20140320-130000.UTC/equinix-chicago.dirA.20140320-132200.UTC.anon.pcap.gz'
p404
aS'https://aa1603@georgetown.edu:amit1234@data.caida.org/datasets/passive-2014/equinix-chicago/20140320-130000.UTC/equinix-chicago.dirA.20140320-132300.UTC.anon.pcap.gz'
p405
aS'https://aa1603@georgetown.edu:amit1234@data.caida.org/datasets/passive-2014/equinix-chicago/20140320-130000.UTC/equinix-chicago.dirA.20140320-132400.UTC.anon.pcap.gz'
p406
aS'https://aa1603@georgetown.edu:amit1234@data.caida.org/datasets/passive-2014/equinix-chicago/20140320-130000.UTC/equinix-chicago.dirA.20140320-132500.UTC.anon.pcap.gz'
p407
aS'https://aa1603@georgetown.edu:amit1234@data.caida.org/datasets/passive-2014/equinix-chicago/20140320-130000.UTC/equinix-chicago.dirA.20140320-132600.UTC.anon.pcap.gz'
p408
aS'https://aa1603@georgetown.edu:amit1234@data.caida.org/datasets/passive-2014/equinix-chicago/20140320-130000.UTC/equinix-chicago.dirA.20140320-132700.UTC.anon.pcap.gz'
p409
aS'https://aa1603@georgetown.edu:amit1234@data.caida.org/datasets/passive-2014/equinix-chicago/20140320-130000.UTC/equinix-chicago.dirA.20140320-132800.UTC.anon.pcap.gz'
p410
aS'https://aa1603@georgetown.edu:amit1234@data.caida.org/datasets/passive-2014/equinix-chicago/20140320-130000.UTC/equinix-chicago.dirA.20140320-132900.UTC.anon.pcap.gz'
p411
aS'https://aa1603@georgetown.edu:amit1234@data.caida.org/datasets/passive-2014/equinix-chicago/20140320-130000.UTC/equinix-chicago.dirA.20140320-133000.UTC.anon.pcap.gz'
p412
aS'https://aa1603@georgetown.edu:amit1234@data.caida.org/datasets/passive-2014/equinix-chicago/20140320-130000.UTC/equinix-chicago.dirA.20140320-133100.UTC.anon.pcap.gz'
p413
aS'https://aa1603@georgetown.edu:amit1234@data.caida.org/datasets/passive-2014/equinix-chicago/20140320-130000.UTC/equinix-chicago.dirA.20140320-133200.UTC.anon.pcap.gz'
p414
aS'https://aa1603@georgetown.edu:amit1234@data.caida.org/datasets/passive-2014/equinix-chicago/20140320-130000.UTC/equinix-chicago.dirA.20140320-133300.UTC.anon.pcap.gz'
p415
aS'https://aa1603@georgetown.edu:amit1234@data.caida.org/datasets/passive-2014/equinix-chicago/20140320-130000.UTC/equinix-chicago.dirA.20140320-133400.UTC.anon.pcap.gz'
p416
aS'https://aa1603@georgetown.edu:amit1234@data.caida.org/datasets/passive-2014/equinix-chicago/20140320-130000.UTC/equinix-chicago.dirA.20140320-133500.UTC.anon.pcap.gz'
p417
aS'https://aa1603@georgetown.edu:amit1234@data.caida.org/datasets/passive-2014/equinix-chicago/20140320-130000.UTC/equinix-chicago.dirA.20140320-133600.UTC.anon.pcap.gz'
p418
aS'https://aa1603@georgetown.edu:amit1234@data.caida.org/datasets/passive-2014/equinix-chicago/20140320-130000.UTC/equinix-chicago.dirA.20140320-133700.UTC.anon.pcap.gz'
p419
aS'https://aa1603@georgetown.edu:amit1234@data.caida.org/datasets/passive-2014/equinix-chicago/20140320-130000.UTC/equinix-chicago.dirA.20140320-133800.UTC.anon.pcap.gz'
p420
aS'https://aa1603@georgetown.edu:amit1234@data.caida.org/datasets/passive-2014/equinix-chicago/20140320-130000.UTC/equinix-chicago.dirA.20140320-133900.UTC.anon.pcap.gz'
p421
aS'https://aa1603@georgetown.edu:amit1234@data.caida.org/datasets/passive-2014/equinix-chicago/20140320-130000.UTC/equinix-chicago.dirA.20140320-134000.UTC.anon.pcap.gz'
p422
aS'https://aa1603@georgetown.edu:amit1234@data.caida.org/datasets/passive-2014/equinix-chicago/20140320-130000.UTC/equinix-chicago.dirA.20140320-134100.UTC.anon.pcap.gz'
p423
aS'https://aa1603@georgetown.edu:amit1234@data.caida.org/datasets/passive-2014/equinix-chicago/20140320-130000.UTC/equinix-chicago.dirA.20140320-134200.UTC.anon.pcap.gz'
p424
aS'https://aa1603@georgetown.edu:amit1234@data.caida.org/datasets/passive-2014/equinix-chicago/20140320-130000.UTC/equinix-chicago.dirA.20140320-134300.UTC.anon.pcap.gz'
p425
aS'https://aa1603@georgetown.edu:amit1234@data.caida.org/datasets/passive-2014/equinix-chicago/20140320-130000.UTC/equinix-chicago.dirA.20140320-134400.UTC.anon.pcap.gz'
p426
aS'https://aa1603@georgetown.edu:amit1234@data.caida.org/datasets/passive-2014/equinix-chicago/20140320-130000.UTC/equinix-chicago.dirA.20140320-134500.UTC.anon.pcap.gz'
p427
aS'https://aa1603@georgetown.edu:amit1234@data.caida.org/datasets/passive-2014/equinix-chicago/20140320-130000.UTC/equinix-chicago.dirA.20140320-134600.UTC.anon.pcap.gz'
p428
aS'https://aa1603@georgetown.edu:amit1234@data.caida.org/datasets/passive-2014/equinix-chicago/20140320-130000.UTC/equinix-chicago.dirA.20140320-134700.UTC.anon.pcap.gz'
p429
aS'https://aa1603@georgetown.edu:amit1234@data.caida.org/datasets/passive-2014/equinix-chicago/20140320-130000.UTC/equinix-chicago.dirA.20140320-134800.UTC.anon.pcap.gz'
p430
aS'https://aa1603@georgetown.edu:amit1234@data.caida.org/datasets/passive-2014/equinix-chicago/20140320-130000.UTC/equinix-chicago.dirA.20140320-134900.UTC.anon.pcap.gz'
p431
aS'https://aa1603@georgetown.edu:amit1234@data.caida.org/datasets/passive-2014/equinix-chicago/20140320-130000.UTC/equinix-chicago.dirA.20140320-135000.UTC.anon.pcap.gz'
p432
aS'https://aa1603@georgetown.edu:amit1234@data.caida.org/datasets/passive-2014/equinix-chicago/20140320-130000.UTC/equinix-chicago.dirA.20140320-135100.UTC.anon.pcap.gz'
p433
aS'https://aa1603@georgetown.edu:amit1234@data.caida.org/datasets/passive-2014/equinix-chicago/20140320-130000.UTC/equinix-chicago.dirA.20140320-135200.UTC.anon.pcap.gz'
p434
aS'https://aa1603@georgetown.edu:amit1234@data.caida.org/datasets/passive-2014/equinix-chicago/20140320-130000.UTC/equinix-chicago.dirA.20140320-135300.UTC.anon.pcap.gz'
p435
aS'https://aa1603@georgetown.edu:amit1234@data.caida.org/datasets/passive-2014/equinix-chicago/20140320-130000.UTC/equinix-chicago.dirA.20140320-135400.UTC.anon.pcap.gz'
p436
aS'https://aa1603@georgetown.edu:amit1234@data.caida.org/datasets/passive-2014/equinix-chicago/20140320-130000.UTC/equinix-chicago.dirA.20140320-135500.UTC.anon.pcap.gz'
p437
aS'https://aa1603@georgetown.edu:amit1234@data.caida.org/datasets/passive-2014/equinix-chicago/20140320-130000.UTC/equinix-chicago.dirA.20140320-135600.UTC.anon.pcap.gz'
p438
aS'https://aa1603@georgetown.edu:amit1234@data.caida.org/datasets/passive-2014/equinix-chicago/20140320-130000.UTC/equinix-chicago.dirA.20140320-135700.UTC.anon.pcap.gz'
p439
aS'https://aa1603@georgetown.edu:amit1234@data.caida.org/datasets/passive-2014/equinix-chicago/20140320-130000.UTC/equinix-chicago.dirA.20140320-135800.UTC.anon.pcap.gz'
p440
aS'https://aa1603@georgetown.edu:amit1234@data.caida.org/datasets/passive-2014/equinix-chicago/20140320-130000.UTC/equinix-chicago.dirA.20140320-135900.UTC.anon.pcap.gz'
p441
aS'https://aa1603@georgetown.edu:amit1234@data.caida.org/datasets/passive-2014/equinix-chicago/20140320-130000.UTC/equinix-chicago.dirA.20140320-140000.UTC.anon.pcap.gz'
p442
aS'https://aa1603@georgetown.edu:amit1234@data.caida.org/datasets/passive-2014/equinix-chicago/20140320-130000.UTC/equinix-chicago.dirA.20140320-140100.UTC.anon.pcap.gz'
p443
aS'https://aa1603@georgetown.edu:amit1234@data.caida.org/datasets/passive-2014/equinix-chicago/20140320-130000.UTC/equinix-chicago.dirB.20140320-125911.UTC.anon.pcap.gz'
p444
aS'https://aa1603@georgetown.edu:amit1234@data.caida.org/datasets/passive-2014/equinix-chicago/20140320-130000.UTC/equinix-chicago.dirB.20140320-130000.UTC.anon.pcap.gz'
p445
aS'https://aa1603@georgetown.edu:amit1234@data.caida.org/datasets/passive-2014/equinix-chicago/20140320-130000.UTC/equinix-chicago.dirB.20140320-130100.UTC.anon.pcap.gz'
p446
aS'https://aa1603@georgetown.edu:amit1234@data.caida.org/datasets/passive-2014/equinix-chicago/20140320-130000.UTC/equinix-chicago.dirB.20140320-130200.UTC.anon.pcap.gz'
p447
aS'https://aa1603@georgetown.edu:amit1234@data.caida.org/datasets/passive-2014/equinix-chicago/20140320-130000.UTC/equinix-chicago.dirB.20140320-130300.UTC.anon.pcap.gz'
p448
aS'https://aa1603@georgetown.edu:amit1234@data.caida.org/datasets/passive-2014/equinix-chicago/20140320-130000.UTC/equinix-chicago.dirB.20140320-130400.UTC.anon.pcap.gz'
p449
aS'https://aa1603@georgetown.edu:amit1234@data.caida.org/datasets/passive-2014/equinix-chicago/20140320-130000.UTC/equinix-chicago.dirB.20140320-130500.UTC.anon.pcap.gz'
p450
aS'https://aa1603@georgetown.edu:amit1234@data.caida.org/datasets/passive-2014/equinix-chicago/20140320-130000.UTC/equinix-chicago.dirB.20140320-130600.UTC.anon.pcap.gz'
p451
aS'https://aa1603@georgetown.edu:amit1234@data.caida.org/datasets/passive-2014/equinix-chicago/20140320-130000.UTC/equinix-chicago.dirB.20140320-130700.UTC.anon.pcap.gz'
p452
aS'https://aa1603@georgetown.edu:amit1234@data.caida.org/datasets/passive-2014/equinix-chicago/20140320-130000.UTC/equinix-chicago.dirB.20140320-130800.UTC.anon.pcap.gz'
p453
aS'https://aa1603@georgetown.edu:amit1234@data.caida.org/datasets/passive-2014/equinix-chicago/20140320-130000.UTC/equinix-chicago.dirB.20140320-130900.UTC.anon.pcap.gz'
p454
aS'https://aa1603@georgetown.edu:amit1234@data.caida.org/datasets/passive-2014/equinix-chicago/20140320-130000.UTC/equinix-chicago.dirB.20140320-131000.UTC.anon.pcap.gz'
p455
aS'https://aa1603@georgetown.edu:amit1234@data.caida.org/datasets/passive-2014/equinix-chicago/20140320-130000.UTC/equinix-chicago.dirB.20140320-131100.UTC.anon.pcap.gz'
p456
aS'https://aa1603@georgetown.edu:amit1234@data.caida.org/datasets/passive-2014/equinix-chicago/20140320-130000.UTC/equinix-chicago.dirB.20140320-131200.UTC.anon.pcap.gz'
p457
aS'https://aa1603@georgetown.edu:amit1234@data.caida.org/datasets/passive-2014/equinix-chicago/20140320-130000.UTC/equinix-chicago.dirB.20140320-131300.UTC.anon.pcap.gz'
p458
aS'https://aa1603@georgetown.edu:amit1234@data.caida.org/datasets/passive-2014/equinix-chicago/20140320-130000.UTC/equinix-chicago.dirB.20140320-131400.UTC.anon.pcap.gz'
p459
aS'https://aa1603@georgetown.edu:amit1234@data.caida.org/datasets/passive-2014/equinix-chicago/20140320-130000.UTC/equinix-chicago.dirB.20140320-131500.UTC.anon.pcap.gz'
p460
aS'https://aa1603@georgetown.edu:amit1234@data.caida.org/datasets/passive-2014/equinix-chicago/20140320-130000.UTC/equinix-chicago.dirB.20140320-131600.UTC.anon.pcap.gz'
p461
aS'https://aa1603@georgetown.edu:amit1234@data.caida.org/datasets/passive-2014/equinix-chicago/20140320-130000.UTC/equinix-chicago.dirB.20140320-131700.UTC.anon.pcap.gz'
p462
aS'https://aa1603@georgetown.edu:amit1234@data.caida.org/datasets/passive-2014/equinix-chicago/20140320-130000.UTC/equinix-chicago.dirB.20140320-131800.UTC.anon.pcap.gz'
p463
aS'https://aa1603@georgetown.edu:amit1234@data.caida.org/datasets/passive-2014/equinix-chicago/20140320-130000.UTC/equinix-chicago.dirB.20140320-131900.UTC.anon.pcap.gz'
p464
aS'https://aa1603@georgetown.edu:amit1234@data.caida.org/datasets/passive-2014/equinix-chicago/20140320-130000.UTC/equinix-chicago.dirB.20140320-132000.UTC.anon.pcap.gz'
p465
aS'https://aa1603@georgetown.edu:amit1234@data.caida.org/datasets/passive-2014/equinix-chicago/20140320-130000.UTC/equinix-chicago.dirB.20140320-132100.UTC.anon.pcap.gz'
p466
aS'https://aa1603@georgetown.edu:amit1234@data.caida.org/datasets/passive-2014/equinix-chicago/20140320-130000.UTC/equinix-chicago.dirB.20140320-132200.UTC.anon.pcap.gz'
p467
aS'https://aa1603@georgetown.edu:amit1234@data.caida.org/datasets/passive-2014/equinix-chicago/20140320-130000.UTC/equinix-chicago.dirB.20140320-132300.UTC.anon.pcap.gz'
p468
aS'https://aa1603@georgetown.edu:amit1234@data.caida.org/datasets/passive-2014/equinix-chicago/20140320-130000.UTC/equinix-chicago.dirB.20140320-132400.UTC.anon.pcap.gz'
p469
aS'https://aa1603@georgetown.edu:amit1234@data.caida.org/datasets/passive-2014/equinix-chicago/20140320-130000.UTC/equinix-chicago.dirB.20140320-132500.UTC.anon.pcap.gz'
p470
aS'https://aa1603@georgetown.edu:amit1234@data.caida.org/datasets/passive-2014/equinix-chicago/20140320-130000.UTC/equinix-chicago.dirB.20140320-132600.UTC.anon.pcap.gz'
p471
aS'https://aa1603@georgetown.edu:amit1234@data.caida.org/datasets/passive-2014/equinix-chicago/20140320-130000.UTC/equinix-chicago.dirB.20140320-132700.UTC.anon.pcap.gz'
p472
aS'https://aa1603@georgetown.edu:amit1234@data.caida.org/datasets/passive-2014/equinix-chicago/20140320-130000.UTC/equinix-chicago.dirB.20140320-132800.UTC.anon.pcap.gz'
p473
aS'https://aa1603@georgetown.edu:amit1234@data.caida.org/datasets/passive-2014/equinix-chicago/20140320-130000.UTC/equinix-chicago.dirB.20140320-132900.UTC.anon.pcap.gz'
p474
aS'https://aa1603@georgetown.edu:amit1234@data.caida.org/datasets/passive-2014/equinix-chicago/20140320-130000.UTC/equinix-chicago.dirB.20140320-133000.UTC.anon.pcap.gz'
p475
aS'https://aa1603@georgetown.edu:amit1234@data.caida.org/datasets/passive-2014/equinix-chicago/20140320-130000.UTC/equinix-chicago.dirB.20140320-133100.UTC.anon.pcap.gz'
p476
aS'https://aa1603@georgetown.edu:amit1234@data.caida.org/datasets/passive-2014/equinix-chicago/20140320-130000.UTC/equinix-chicago.dirB.20140320-133200.UTC.anon.pcap.gz'
p477
aS'https://aa1603@georgetown.edu:amit1234@data.caida.org/datasets/passive-2014/equinix-chicago/20140320-130000.UTC/equinix-chicago.dirB.20140320-133300.UTC.anon.pcap.gz'
p478
aS'https://aa1603@georgetown.edu:amit1234@data.caida.org/datasets/passive-2014/equinix-chicago/20140320-130000.UTC/equinix-chicago.dirB.20140320-133400.UTC.anon.pcap.gz'
p479
aS'https://aa1603@georgetown.edu:amit1234@data.caida.org/datasets/passive-2014/equinix-chicago/20140320-130000.UTC/equinix-chicago.dirB.20140320-133500.UTC.anon.pcap.gz'
p480
aS'https://aa1603@georgetown.edu:amit1234@data.caida.org/datasets/passive-2014/equinix-chicago/20140320-130000.UTC/equinix-chicago.dirB.20140320-133600.UTC.anon.pcap.gz'
p481
aS'https://aa1603@georgetown.edu:amit1234@data.caida.org/datasets/passive-2014/equinix-chicago/20140320-130000.UTC/equinix-chicago.dirB.20140320-133700.UTC.anon.pcap.gz'
p482
aS'https://aa1603@georgetown.edu:amit1234@data.caida.org/datasets/passive-2014/equinix-chicago/20140320-130000.UTC/equinix-chicago.dirB.20140320-133800.UTC.anon.pcap.gz'
p483
aS'https://aa1603@georgetown.edu:amit1234@data.caida.org/datasets/passive-2014/equinix-chicago/20140320-130000.UTC/equinix-chicago.dirB.20140320-133900.UTC.anon.pcap.gz'
p484
aS'https://aa1603@georgetown.edu:amit1234@data.caida.org/datasets/passive-2014/equinix-chicago/20140320-130000.UTC/equinix-chicago.dirB.20140320-134000.UTC.anon.pcap.gz'
p485
aS'https://aa1603@georgetown.edu:amit1234@data.caida.org/datasets/passive-2014/equinix-chicago/20140320-130000.UTC/equinix-chicago.dirB.20140320-134100.UTC.anon.pcap.gz'
p486
aS'https://aa1603@georgetown.edu:amit1234@data.caida.org/datasets/passive-2014/equinix-chicago/20140320-130000.UTC/equinix-chicago.dirB.20140320-134200.UTC.anon.pcap.gz'
p487
aS'https://aa1603@georgetown.edu:amit1234@data.caida.org/datasets/passive-2014/equinix-chicago/20140320-130000.UTC/equinix-chicago.dirB.20140320-134300.UTC.anon.pcap.gz'
p488
aS'https://aa1603@georgetown.edu:amit1234@data.caida.org/datasets/passive-2014/equinix-chicago/20140320-130000.UTC/equinix-chicago.dirB.20140320-134400.UTC.anon.pcap.gz'
p489
aS'https://aa1603@georgetown.edu:amit1234@data.caida.org/datasets/passive-2014/equinix-chicago/20140320-130000.UTC/equinix-chicago.dirB.20140320-134500.UTC.anon.pcap.gz'
p490
aS'https://aa1603@georgetown.edu:amit1234@data.caida.org/datasets/passive-2014/equinix-chicago/20140320-130000.UTC/equinix-chicago.dirB.20140320-134600.UTC.anon.pcap.gz'
p491
aS'https://aa1603@georgetown.edu:amit1234@data.caida.org/datasets/passive-2014/equinix-chicago/20140320-130000.UTC/equinix-chicago.dirB.20140320-134700.UTC.anon.pcap.gz'
p492
aS'https://aa1603@georgetown.edu:amit1234@data.caida.org/datasets/passive-2014/equinix-chicago/20140320-130000.UTC/equinix-chicago.dirB.20140320-134800.UTC.anon.pcap.gz'
p493
aS'https://aa1603@georgetown.edu:amit1234@data.caida.org/datasets/passive-2014/equinix-chicago/20140320-130000.UTC/equinix-chicago.dirB.20140320-134900.UTC.anon.pcap.gz'
p494
aS'https://aa1603@georgetown.edu:amit1234@data.caida.org/datasets/passive-2014/equinix-chicago/20140320-130000.UTC/equinix-chicago.dirB.20140320-135000.UTC.anon.pcap.gz'
p495
aS'https://aa1603@georgetown.edu:amit1234@data.caida.org/datasets/passive-2014/equinix-chicago/20140320-130000.UTC/equinix-chicago.dirB.20140320-135100.UTC.anon.pcap.gz'
p496
aS'https://aa1603@georgetown.edu:amit1234@data.caida.org/datasets/passive-2014/equinix-chicago/20140320-130000.UTC/equinix-chicago.dirB.20140320-135200.UTC.anon.pcap.gz'
p497
aS'https://aa1603@georgetown.edu:amit1234@data.caida.org/datasets/passive-2014/equinix-chicago/20140320-130000.UTC/equinix-chicago.dirB.20140320-135300.UTC.anon.pcap.gz'
p498
aS'https://aa1603@georgetown.edu:amit1234@data.caida.org/datasets/passive-2014/equinix-chicago/20140320-130000.UTC/equinix-chicago.dirB.20140320-135400.UTC.anon.pcap.gz'
p499
aS'https://aa1603@georgetown.edu:amit1234@data.caida.org/datasets/passive-2014/equinix-chicago/20140320-130000.UTC/equinix-chicago.dirB.20140320-135500.UTC.anon.pcap.gz'
p500
aS'https://aa1603@georgetown.edu:amit1234@data.caida.org/datasets/passive-2014/equinix-chicago/20140320-130000.UTC/equinix-chicago.dirB.20140320-135600.UTC.anon.pcap.gz'
p501
aS'https://aa1603@georgetown.edu:amit1234@data.caida.org/datasets/passive-2014/equinix-chicago/20140320-130000.UTC/equinix-chicago.dirB.20140320-135700.UTC.anon.pcap.gz'
p502
aS'https://aa1603@georgetown.edu:amit1234@data.caida.org/datasets/passive-2014/equinix-chicago/20140320-130000.UTC/equinix-chicago.dirB.20140320-135800.UTC.anon.pcap.gz'
p503
aS'https://aa1603@georgetown.edu:amit1234@data.caida.org/datasets/passive-2014/equinix-chicago/20140320-130000.UTC/equinix-chicago.dirB.20140320-135900.UTC.anon.pcap.gz'
p504
aS'https://aa1603@georgetown.edu:amit1234@data.caida.org/datasets/passive-2014/equinix-chicago/20140320-130000.UTC/equinix-chicago.dirB.20140320-140000.UTC.anon.pcap.gz'
p505
aS'https://aa1603@georgetown.edu:amit1234@data.caida.org/datasets/passive-2014/equinix-chicago/20140320-130000.UTC/equinix-chicago.dirB.20140320-140100.UTC.anon.pcap.gz'
p506
aS'https://aa1603@georgetown.edu:amit1234@data.caida.org/datasets/passive-2014/equinix-chicago/20140619-130000.UTC/equinix-chicago.dirA.20140619-125911.UTC.anon.pcap.gz'
p507
aS'https://aa1603@georgetown.edu:amit1234@data.caida.org/datasets/passive-2014/equinix-chicago/20140619-130000.UTC/equinix-chicago.dirA.20140619-130000.UTC.anon.pcap.gz'
p508
aS'https://aa1603@georgetown.edu:amit1234@data.caida.org/datasets/passive-2014/equinix-chicago/20140619-130000.UTC/equinix-chicago.dirA.20140619-130100.UTC.anon.pcap.gz'
p509
aS'https://aa1603@georgetown.edu:amit1234@data.caida.org/datasets/passive-2014/equinix-chicago/20140619-130000.UTC/equinix-chicago.dirA.20140619-130200.UTC.anon.pcap.gz'
p510
aS'https://aa1603@georgetown.edu:amit1234@data.caida.org/datasets/passive-2014/equinix-chicago/20140619-130000.UTC/equinix-chicago.dirA.20140619-130300.UTC.anon.pcap.gz'
p511
aS'https://aa1603@georgetown.edu:amit1234@data.caida.org/datasets/passive-2014/equinix-chicago/20140619-130000.UTC/equinix-chicago.dirA.20140619-130400.UTC.anon.pcap.gz'
p512
aS'https://aa1603@georgetown.edu:amit1234@data.caida.org/datasets/passive-2014/equinix-chicago/20140619-130000.UTC/equinix-chicago.dirA.20140619-130500.UTC.anon.pcap.gz'
p513
aS'https://aa1603@georgetown.edu:amit1234@data.caida.org/datasets/passive-2014/equinix-chicago/20140619-130000.UTC/equinix-chicago.dirA.20140619-130600.UTC.anon.pcap.gz'
p514
aS'https://aa1603@georgetown.edu:amit1234@data.caida.org/datasets/passive-2014/equinix-chicago/20140619-130000.UTC/equinix-chicago.dirA.20140619-130700.UTC.anon.pcap.gz'
p515
aS'https://aa1603@georgetown.edu:amit1234@data.caida.org/datasets/passive-2014/equinix-chicago/20140619-130000.UTC/equinix-chicago.dirA.20140619-130800.UTC.anon.pcap.gz'
p516
aS'https://aa1603@georgetown.edu:amit1234@data.caida.org/datasets/passive-2014/equinix-chicago/20140619-130000.UTC/equinix-chicago.dirA.20140619-130900.UTC.anon.pcap.gz'
p517
aS'https://aa1603@georgetown.edu:amit1234@data.caida.org/datasets/passive-2014/equinix-chicago/20140619-130000.UTC/equinix-chicago.dirA.20140619-131000.UTC.anon.pcap.gz'
p518
aS'https://aa1603@georgetown.edu:amit1234@data.caida.org/datasets/passive-2014/equinix-chicago/20140619-130000.UTC/equinix-chicago.dirA.20140619-131100.UTC.anon.pcap.gz'
p519
aS'https://aa1603@georgetown.edu:amit1234@data.caida.org/datasets/passive-2014/equinix-chicago/20140619-130000.UTC/equinix-chicago.dirA.20140619-131200.UTC.anon.pcap.gz'
p520
aS'https://aa1603@georgetown.edu:amit1234@data.caida.org/datasets/passive-2014/equinix-chicago/20140619-130000.UTC/equinix-chicago.dirA.20140619-131300.UTC.anon.pcap.gz'
p521
aS'https://aa1603@georgetown.edu:amit1234@data.caida.org/datasets/passive-2014/equinix-chicago/20140619-130000.UTC/equinix-chicago.dirA.20140619-131400.UTC.anon.pcap.gz'
p522
aS'https://aa1603@georgetown.edu:amit1234@data.caida.org/datasets/passive-2014/equinix-chicago/20140619-130000.UTC/equinix-chicago.dirA.20140619-131500.UTC.anon.pcap.gz'
p523
aS'https://aa1603@georgetown.edu:amit1234@data.caida.org/datasets/passive-2014/equinix-chicago/20140619-130000.UTC/equinix-chicago.dirA.20140619-131600.UTC.anon.pcap.gz'
p524
aS'https://aa1603@georgetown.edu:amit1234@data.caida.org/datasets/passive-2014/equinix-chicago/20140619-130000.UTC/equinix-chicago.dirA.20140619-131700.UTC.anon.pcap.gz'
p525
aS'https://aa1603@georgetown.edu:amit1234@data.caida.org/datasets/passive-2014/equinix-chicago/20140619-130000.UTC/equinix-chicago.dirA.20140619-131800.UTC.anon.pcap.gz'
p526
aS'https://aa1603@georgetown.edu:amit1234@data.caida.org/datasets/passive-2014/equinix-chicago/20140619-130000.UTC/equinix-chicago.dirA.20140619-131900.UTC.anon.pcap.gz'
p527
aS'https://aa1603@georgetown.edu:amit1234@data.caida.org/datasets/passive-2014/equinix-chicago/20140619-130000.UTC/equinix-chicago.dirA.20140619-132000.UTC.anon.pcap.gz'
p528
aS'https://aa1603@georgetown.edu:amit1234@data.caida.org/datasets/passive-2014/equinix-chicago/20140619-130000.UTC/equinix-chicago.dirA.20140619-132100.UTC.anon.pcap.gz'
p529
aS'https://aa1603@georgetown.edu:amit1234@data.caida.org/datasets/passive-2014/equinix-chicago/20140619-130000.UTC/equinix-chicago.dirA.20140619-132200.UTC.anon.pcap.gz'
p530
aS'https://aa1603@georgetown.edu:amit1234@data.caida.org/datasets/passive-2014/equinix-chicago/20140619-130000.UTC/equinix-chicago.dirA.20140619-132300.UTC.anon.pcap.gz'
p531
aS'https://aa1603@georgetown.edu:amit1234@data.caida.org/datasets/passive-2014/equinix-chicago/20140619-130000.UTC/equinix-chicago.dirA.20140619-132400.UTC.anon.pcap.gz'
p532
aS'https://aa1603@georgetown.edu:amit1234@data.caida.org/datasets/passive-2014/equinix-chicago/20140619-130000.UTC/equinix-chicago.dirA.20140619-132500.UTC.anon.pcap.gz'
p533
aS'https://aa1603@georgetown.edu:amit1234@data.caida.org/datasets/passive-2014/equinix-chicago/20140619-130000.UTC/equinix-chicago.dirA.20140619-132600.UTC.anon.pcap.gz'
p534
aS'https://aa1603@georgetown.edu:amit1234@data.caida.org/datasets/passive-2014/equinix-chicago/20140619-130000.UTC/equinix-chicago.dirA.20140619-132700.UTC.anon.pcap.gz'
p535
aS'https://aa1603@georgetown.edu:amit1234@data.caida.org/datasets/passive-2014/equinix-chicago/20140619-130000.UTC/equinix-chicago.dirA.20140619-132800.UTC.anon.pcap.gz'
p536
aS'https://aa1603@georgetown.edu:amit1234@data.caida.org/datasets/passive-2014/equinix-chicago/20140619-130000.UTC/equinix-chicago.dirA.20140619-132900.UTC.anon.pcap.gz'
p537
aS'https://aa1603@georgetown.edu:amit1234@data.caida.org/datasets/passive-2014/equinix-chicago/20140619-130000.UTC/equinix-chicago.dirA.20140619-133000.UTC.anon.pcap.gz'
p538
aS'https://aa1603@georgetown.edu:amit1234@data.caida.org/datasets/passive-2014/equinix-chicago/20140619-130000.UTC/equinix-chicago.dirA.20140619-133100.UTC.anon.pcap.gz'
p539
aS'https://aa1603@georgetown.edu:amit1234@data.caida.org/datasets/passive-2014/equinix-chicago/20140619-130000.UTC/equinix-chicago.dirA.20140619-133200.UTC.anon.pcap.gz'
p540
aS'https://aa1603@georgetown.edu:amit1234@data.caida.org/datasets/passive-2014/equinix-chicago/20140619-130000.UTC/equinix-chicago.dirA.20140619-133300.UTC.anon.pcap.gz'
p541
aS'https://aa1603@georgetown.edu:amit1234@data.caida.org/datasets/passive-2014/equinix-chicago/20140619-130000.UTC/equinix-chicago.dirA.20140619-133400.UTC.anon.pcap.gz'
p542
aS'https://aa1603@georgetown.edu:amit1234@data.caida.org/datasets/passive-2014/equinix-chicago/20140619-130000.UTC/equinix-chicago.dirA.20140619-133500.UTC.anon.pcap.gz'
p543
aS'https://aa1603@georgetown.edu:amit1234@data.caida.org/datasets/passive-2014/equinix-chicago/20140619-130000.UTC/equinix-chicago.dirA.20140619-133600.UTC.anon.pcap.gz'
p544
aS'https://aa1603@georgetown.edu:amit1234@data.caida.org/datasets/passive-2014/equinix-chicago/20140619-130000.UTC/equinix-chicago.dirA.20140619-133700.UTC.anon.pcap.gz'
p545
aS'https://aa1603@georgetown.edu:amit1234@data.caida.org/datasets/passive-2014/equinix-chicago/20140619-130000.UTC/equinix-chicago.dirA.20140619-133800.UTC.anon.pcap.gz'
p546
aS'https://aa1603@georgetown.edu:amit1234@data.caida.org/datasets/passive-2014/equinix-chicago/20140619-130000.UTC/equinix-chicago.dirA.20140619-133900.UTC.anon.pcap.gz'
p547
aS'https://aa1603@georgetown.edu:amit1234@data.caida.org/datasets/passive-2014/equinix-chicago/20140619-130000.UTC/equinix-chicago.dirA.20140619-134000.UTC.anon.pcap.gz'
p548
aS'https://aa1603@georgetown.edu:amit1234@data.caida.org/datasets/passive-2014/equinix-chicago/20140619-130000.UTC/equinix-chicago.dirA.20140619-134100.UTC.anon.pcap.gz'
p549
aS'https://aa1603@georgetown.edu:amit1234@data.caida.org/datasets/passive-2014/equinix-chicago/20140619-130000.UTC/equinix-chicago.dirA.20140619-134200.UTC.anon.pcap.gz'
p550
aS'https://aa1603@georgetown.edu:amit1234@data.caida.org/datasets/passive-2014/equinix-chicago/20140619-130000.UTC/equinix-chicago.dirA.20140619-134300.UTC.anon.pcap.gz'
p551
aS'https://aa1603@georgetown.edu:amit1234@data.caida.org/datasets/passive-2014/equinix-chicago/20140619-130000.UTC/equinix-chicago.dirA.20140619-134400.UTC.anon.pcap.gz'
p552
aS'https://aa1603@georgetown.edu:amit1234@data.caida.org/datasets/passive-2014/equinix-chicago/20140619-130000.UTC/equinix-chicago.dirA.20140619-134500.UTC.anon.pcap.gz'
p553
aS'https://aa1603@georgetown.edu:amit1234@data.caida.org/datasets/passive-2014/equinix-chicago/20140619-130000.UTC/equinix-chicago.dirA.20140619-134600.UTC.anon.pcap.gz'
p554
aS'https://aa1603@georgetown.edu:amit1234@data.caida.org/datasets/passive-2014/equinix-chicago/20140619-130000.UTC/equinix-chicago.dirA.20140619-134700.UTC.anon.pcap.gz'
p555
aS'https://aa1603@georgetown.edu:amit1234@data.caida.org/datasets/passive-2014/equinix-chicago/20140619-130000.UTC/equinix-chicago.dirA.20140619-134800.UTC.anon.pcap.gz'
p556
aS'https://aa1603@georgetown.edu:amit1234@data.caida.org/datasets/passive-2014/equinix-chicago/20140619-130000.UTC/equinix-chicago.dirA.20140619-134900.UTC.anon.pcap.gz'
p557
aS'https://aa1603@georgetown.edu:amit1234@data.caida.org/datasets/passive-2014/equinix-chicago/20140619-130000.UTC/equinix-chicago.dirA.20140619-135000.UTC.anon.pcap.gz'
p558
aS'https://aa1603@georgetown.edu:amit1234@data.caida.org/datasets/passive-2014/equinix-chicago/20140619-130000.UTC/equinix-chicago.dirA.20140619-135100.UTC.anon.pcap.gz'
p559
aS'https://aa1603@georgetown.edu:amit1234@data.caida.org/datasets/passive-2014/equinix-chicago/20140619-130000.UTC/equinix-chicago.dirA.20140619-135200.UTC.anon.pcap.gz'
p560
aS'https://aa1603@georgetown.edu:amit1234@data.caida.org/datasets/passive-2014/equinix-chicago/20140619-130000.UTC/equinix-chicago.dirA.20140619-135300.UTC.anon.pcap.gz'
p561
aS'https://aa1603@georgetown.edu:amit1234@data.caida.org/datasets/passive-2014/equinix-chicago/20140619-130000.UTC/equinix-chicago.dirA.20140619-135400.UTC.anon.pcap.gz'
p562
aS'https://aa1603@georgetown.edu:amit1234@data.caida.org/datasets/passive-2014/equinix-chicago/20140619-130000.UTC/equinix-chicago.dirA.20140619-135500.UTC.anon.pcap.gz'
p563
aS'https://aa1603@georgetown.edu:amit1234@data.caida.org/datasets/passive-2014/equinix-chicago/20140619-130000.UTC/equinix-chicago.dirA.20140619-135600.UTC.anon.pcap.gz'
p564
aS'https://aa1603@georgetown.edu:amit1234@data.caida.org/datasets/passive-2014/equinix-chicago/20140619-130000.UTC/equinix-chicago.dirA.20140619-135700.UTC.anon.pcap.gz'
p565
aS'https://aa1603@georgetown.edu:amit1234@data.caida.org/datasets/passive-2014/equinix-chicago/20140619-130000.UTC/equinix-chicago.dirA.20140619-135800.UTC.anon.pcap.gz'
p566
aS'https://aa1603@georgetown.edu:amit1234@data.caida.org/datasets/passive-2014/equinix-chicago/20140619-130000.UTC/equinix-chicago.dirA.20140619-135900.UTC.anon.pcap.gz'
p567
aS'https://aa1603@georgetown.edu:amit1234@data.caida.org/datasets/passive-2014/equinix-chicago/20140619-130000.UTC/equinix-chicago.dirA.20140619-140000.UTC.anon.pcap.gz'
p568
aS'https://aa1603@georgetown.edu:amit1234@data.caida.org/datasets/passive-2014/equinix-chicago/20140619-130000.UTC/equinix-chicago.dirA.20140619-140100.UTC.anon.pcap.gz'
p569
aS'https://aa1603@georgetown.edu:amit1234@data.caida.org/datasets/passive-2014/equinix-chicago/20140619-130000.UTC/equinix-chicago.dirB.20140619-125911.UTC.anon.pcap.gz'
p570
aS'https://aa1603@georgetown.edu:amit1234@data.caida.org/datasets/passive-2014/equinix-chicago/20140619-130000.UTC/equinix-chicago.dirB.20140619-130000.UTC.anon.pcap.gz'
p571
aS'https://aa1603@georgetown.edu:amit1234@data.caida.org/datasets/passive-2014/equinix-chicago/20140619-130000.UTC/equinix-chicago.dirB.20140619-130100.UTC.anon.pcap.gz'
p572
aS'https://aa1603@georgetown.edu:amit1234@data.caida.org/datasets/passive-2014/equinix-chicago/20140619-130000.UTC/equinix-chicago.dirB.20140619-130200.UTC.anon.pcap.gz'
p573
aS'https://aa1603@georgetown.edu:amit1234@data.caida.org/datasets/passive-2014/equinix-chicago/20140619-130000.UTC/equinix-chicago.dirB.20140619-130300.UTC.anon.pcap.gz'
p574
aS'https://aa1603@georgetown.edu:amit1234@data.caida.org/datasets/passive-2014/equinix-chicago/20140619-130000.UTC/equinix-chicago.dirB.20140619-130400.UTC.anon.pcap.gz'
p575
aS'https://aa1603@georgetown.edu:amit1234@data.caida.org/datasets/passive-2014/equinix-chicago/20140619-130000.UTC/equinix-chicago.dirB.20140619-130500.UTC.anon.pcap.gz'
p576
aS'https://aa1603@georgetown.edu:amit1234@data.caida.org/datasets/passive-2014/equinix-chicago/20140619-130000.UTC/equinix-chicago.dirB.20140619-130600.UTC.anon.pcap.gz'
p577
aS'https://aa1603@georgetown.edu:amit1234@data.caida.org/datasets/passive-2014/equinix-chicago/20140619-130000.UTC/equinix-chicago.dirB.20140619-130700.UTC.anon.pcap.gz'
p578
aS'https://aa1603@georgetown.edu:amit1234@data.caida.org/datasets/passive-2014/equinix-chicago/20140619-130000.UTC/equinix-chicago.dirB.20140619-130800.UTC.anon.pcap.gz'
p579
aS'https://aa1603@georgetown.edu:amit1234@data.caida.org/datasets/passive-2014/equinix-chicago/20140619-130000.UTC/equinix-chicago.dirB.20140619-130900.UTC.anon.pcap.gz'
p580
aS'https://aa1603@georgetown.edu:amit1234@data.caida.org/datasets/passive-2014/equinix-chicago/20140619-130000.UTC/equinix-chicago.dirB.20140619-131000.UTC.anon.pcap.gz'
p581
aS'https://aa1603@georgetown.edu:amit1234@data.caida.org/datasets/passive-2014/equinix-chicago/20140619-130000.UTC/equinix-chicago.dirB.20140619-131100.UTC.anon.pcap.gz'
p582
aS'https://aa1603@georgetown.edu:amit1234@data.caida.org/datasets/passive-2014/equinix-chicago/20140619-130000.UTC/equinix-chicago.dirB.20140619-131200.UTC.anon.pcap.gz'
p583
aS'https://aa1603@georgetown.edu:amit1234@data.caida.org/datasets/passive-2014/equinix-chicago/20140619-130000.UTC/equinix-chicago.dirB.20140619-131300.UTC.anon.pcap.gz'
p584
aS'https://aa1603@georgetown.edu:amit1234@data.caida.org/datasets/passive-2014/equinix-chicago/20140619-130000.UTC/equinix-chicago.dirB.20140619-131400.UTC.anon.pcap.gz'
p585
aS'https://aa1603@georgetown.edu:amit1234@data.caida.org/datasets/passive-2014/equinix-chicago/20140619-130000.UTC/equinix-chicago.dirB.20140619-131500.UTC.anon.pcap.gz'
p586
aS'https://aa1603@georgetown.edu:amit1234@data.caida.org/datasets/passive-2014/equinix-chicago/20140619-130000.UTC/equinix-chicago.dirB.20140619-131600.UTC.anon.pcap.gz'
p587
aS'https://aa1603@georgetown.edu:amit1234@data.caida.org/datasets/passive-2014/equinix-chicago/20140619-130000.UTC/equinix-chicago.dirB.20140619-131700.UTC.anon.pcap.gz'
p588
aS'https://aa1603@georgetown.edu:amit1234@data.caida.org/datasets/passive-2014/equinix-chicago/20140619-130000.UTC/equinix-chicago.dirB.20140619-131800.UTC.anon.pcap.gz'
p589
aS'https://aa1603@georgetown.edu:amit1234@data.caida.org/datasets/passive-2014/equinix-chicago/20140619-130000.UTC/equinix-chicago.dirB.20140619-131900.UTC.anon.pcap.gz'
p590
aS'https://aa1603@georgetown.edu:amit1234@data.caida.org/datasets/passive-2014/equinix-chicago/20140619-130000.UTC/equinix-chicago.dirB.20140619-132000.UTC.anon.pcap.gz'
p591
aS'https://aa1603@georgetown.edu:amit1234@data.caida.org/datasets/passive-2014/equinix-chicago/20140619-130000.UTC/equinix-chicago.dirB.20140619-132100.UTC.anon.pcap.gz'
p592
aS'https://aa1603@georgetown.edu:amit1234@data.caida.org/datasets/passive-2014/equinix-chicago/20140619-130000.UTC/equinix-chicago.dirB.20140619-132200.UTC.anon.pcap.gz'
p593
aS'https://aa1603@georgetown.edu:amit1234@data.caida.org/datasets/passive-2014/equinix-chicago/20140619-130000.UTC/equinix-chicago.dirB.20140619-132300.UTC.anon.pcap.gz'
p594
aS'https://aa1603@georgetown.edu:amit1234@data.caida.org/datasets/passive-2014/equinix-chicago/20140619-130000.UTC/equinix-chicago.dirB.20140619-132400.UTC.anon.pcap.gz'
p595
aS'https://aa1603@georgetown.edu:amit1234@data.caida.org/datasets/passive-2014/equinix-chicago/20140619-130000.UTC/equinix-chicago.dirB.20140619-132500.UTC.anon.pcap.gz'
p596
aS'https://aa1603@georgetown.edu:amit1234@data.caida.org/datasets/passive-2014/equinix-chicago/20140619-130000.UTC/equinix-chicago.dirB.20140619-132600.UTC.anon.pcap.gz'
p597
aS'https://aa1603@georgetown.edu:amit1234@data.caida.org/datasets/passive-2014/equinix-chicago/20140619-130000.UTC/equinix-chicago.dirB.20140619-132700.UTC.anon.pcap.gz'
p598
aS'https://aa1603@georgetown.edu:amit1234@data.caida.org/datasets/passive-2014/equinix-chicago/20140619-130000.UTC/equinix-chicago.dirB.20140619-132800.UTC.anon.pcap.gz'
p599
aS'https://aa1603@georgetown.edu:amit1234@data.caida.org/datasets/passive-2014/equinix-chicago/20140619-130000.UTC/equinix-chicago.dirB.20140619-132900.UTC.anon.pcap.gz'
p600
aS'https://aa1603@georgetown.edu:amit1234@data.caida.org/datasets/passive-2014/equinix-chicago/20140619-130000.UTC/equinix-chicago.dirB.20140619-133000.UTC.anon.pcap.gz'
p601
aS'https://aa1603@georgetown.edu:amit1234@data.caida.org/datasets/passive-2014/equinix-chicago/20140619-130000.UTC/equinix-chicago.dirB.20140619-133100.UTC.anon.pcap.gz'
p602
aS'https://aa1603@georgetown.edu:amit1234@data.caida.org/datasets/passive-2014/equinix-chicago/20140619-130000.UTC/equinix-chicago.dirB.20140619-133200.UTC.anon.pcap.gz'
p603
aS'https://aa1603@georgetown.edu:amit1234@data.caida.org/datasets/passive-2014/equinix-chicago/20140619-130000.UTC/equinix-chicago.dirB.20140619-133300.UTC.anon.pcap.gz'
p604
aS'https://aa1603@georgetown.edu:amit1234@data.caida.org/datasets/passive-2014/equinix-chicago/20140619-130000.UTC/equinix-chicago.dirB.20140619-133400.UTC.anon.pcap.gz'
p605
aS'https://aa1603@georgetown.edu:amit1234@data.caida.org/datasets/passive-2014/equinix-chicago/20140619-130000.UTC/equinix-chicago.dirB.20140619-133500.UTC.anon.pcap.gz'
p606
aS'https://aa1603@georgetown.edu:amit1234@data.caida.org/datasets/passive-2014/equinix-chicago/20140619-130000.UTC/equinix-chicago.dirB.20140619-133600.UTC.anon.pcap.gz'
p607
aS'https://aa1603@georgetown.edu:amit1234@data.caida.org/datasets/passive-2014/equinix-chicago/20140619-130000.UTC/equinix-chicago.dirB.20140619-133700.UTC.anon.pcap.gz'
p608
aS'https://aa1603@georgetown.edu:amit1234@data.caida.org/datasets/passive-2014/equinix-chicago/20140619-130000.UTC/equinix-chicago.dirB.20140619-133800.UTC.anon.pcap.gz'
p609
aS'https://aa1603@georgetown.edu:amit1234@data.caida.org/datasets/passive-2014/equinix-chicago/20140619-130000.UTC/equinix-chicago.dirB.20140619-133900.UTC.anon.pcap.gz'
p610
aS'https://aa1603@georgetown.edu:amit1234@data.caida.org/datasets/passive-2014/equinix-chicago/20140619-130000.UTC/equinix-chicago.dirB.20140619-134000.UTC.anon.pcap.gz'
p611
aS'https://aa1603@georgetown.edu:amit1234@data.caida.org/datasets/passive-2014/equinix-chicago/20140619-130000.UTC/equinix-chicago.dirB.20140619-134100.UTC.anon.pcap.gz'
p612
aS'https://aa1603@georgetown.edu:amit1234@data.caida.org/datasets/passive-2014/equinix-chicago/20140619-130000.UTC/equinix-chicago.dirB.20140619-134200.UTC.anon.pcap.gz'
p613
aS'https://aa1603@georgetown.edu:amit1234@data.caida.org/datasets/passive-2014/equinix-chicago/20140619-130000.UTC/equinix-chicago.dirB.20140619-134300.UTC.anon.pcap.gz'
p614
aS'https://aa1603@georgetown.edu:amit1234@data.caida.org/datasets/passive-2014/equinix-chicago/20140619-130000.UTC/equinix-chicago.dirB.20140619-134400.UTC.anon.pcap.gz'
p615
aS'https://aa1603@georgetown.edu:amit1234@data.caida.org/datasets/passive-2014/equinix-chicago/20140619-130000.UTC/equinix-chicago.dirB.20140619-134500.UTC.anon.pcap.gz'
p616
aS'https://aa1603@georgetown.edu:amit1234@data.caida.org/datasets/passive-2014/equinix-chicago/20140619-130000.UTC/equinix-chicago.dirB.20140619-134600.UTC.anon.pcap.gz'
p617
aS'https://aa1603@georgetown.edu:amit1234@data.caida.org/datasets/passive-2014/equinix-chicago/20140619-130000.UTC/equinix-chicago.dirB.20140619-134700.UTC.anon.pcap.gz'
p618
aS'https://aa1603@georgetown.edu:amit1234@data.caida.org/datasets/passive-2014/equinix-chicago/20140619-130000.UTC/equinix-chicago.dirB.20140619-134800.UTC.anon.pcap.gz'
p619
aS'https://aa1603@georgetown.edu:amit1234@data.caida.org/datasets/passive-2014/equinix-chicago/20140619-130000.UTC/equinix-chicago.dirB.20140619-134900.UTC.anon.pcap.gz'
p620
aS'https://aa1603@georgetown.edu:amit1234@data.caida.org/datasets/passive-2014/equinix-chicago/20140619-130000.UTC/equinix-chicago.dirB.20140619-135000.UTC.anon.pcap.gz'
p621
aS'https://aa1603@georgetown.edu:amit1234@data.caida.org/datasets/passive-2014/equinix-chicago/20140619-130000.UTC/equinix-chicago.dirB.20140619-135100.UTC.anon.pcap.gz'
p622
aS'https://aa1603@georgetown.edu:amit1234@data.caida.org/datasets/passive-2014/equinix-chicago/20140619-130000.UTC/equinix-chicago.dirB.20140619-135200.UTC.anon.pcap.gz'
p623
aS'https://aa1603@georgetown.edu:amit1234@data.caida.org/datasets/passive-2014/equinix-chicago/20140619-130000.UTC/equinix-chicago.dirB.20140619-135300.UTC.anon.pcap.gz'
p624
aS'https://aa1603@georgetown.edu:amit1234@data.caida.org/datasets/passive-2014/equinix-chicago/20140619-130000.UTC/equinix-chicago.dirB.20140619-135400.UTC.anon.pcap.gz'
p625
aS'https://aa1603@georgetown.edu:amit1234@data.caida.org/datasets/passive-2014/equinix-chicago/20140619-130000.UTC/equinix-chicago.dirB.20140619-135500.UTC.anon.pcap.gz'
p626
aS'https://aa1603@georgetown.edu:amit1234@data.caida.org/datasets/passive-2014/equinix-chicago/20140619-130000.UTC/equinix-chicago.dirB.20140619-135600.UTC.anon.pcap.gz'
p627
aS'https://aa1603@georgetown.edu:amit1234@data.caida.org/datasets/passive-2014/equinix-chicago/20140619-130000.UTC/equinix-chicago.dirB.20140619-135700.UTC.anon.pcap.gz'
p628
aS'https://aa1603@georgetown.edu:amit1234@data.caida.org/datasets/passive-2014/equinix-chicago/20140619-130000.UTC/equinix-chicago.dirB.20140619-135800.UTC.anon.pcap.gz'
p629
aS'https://aa1603@georgetown.edu:amit1234@data.caida.org/datasets/passive-2014/equinix-chicago/20140619-130000.UTC/equinix-chicago.dirB.20140619-135900.UTC.anon.pcap.gz'
p630
aS'https://aa1603@georgetown.edu:amit1234@data.caida.org/datasets/passive-2014/equinix-chicago/20140619-130000.UTC/equinix-chicago.dirB.20140619-140000.UTC.anon.pcap.gz'
p631
aS'https://aa1603@georgetown.edu:amit1234@data.caida.org/datasets/passive-2014/equinix-chicago/20140619-130000.UTC/equinix-chicago.dirB.20140619-140100.UTC.anon.pcap.gz'
p632
aS'https://aa1603@georgetown.edu:amit1234@data.caida.org/datasets/passive-2014/equinix-chicago/20140918-130000.UTC/equinix-chicago.dirA.20140918-125911.UTC.anon.pcap.gz'
p633
aS'https://aa1603@georgetown.edu:amit1234@data.caida.org/datasets/passive-2014/equinix-chicago/20140918-130000.UTC/equinix-chicago.dirA.20140918-130000.UTC.anon.pcap.gz'
p634
aS'https://aa1603@georgetown.edu:amit1234@data.caida.org/datasets/passive-2014/equinix-chicago/20140918-130000.UTC/equinix-chicago.dirA.20140918-130100.UTC.anon.pcap.gz'
p635
aS'https://aa1603@georgetown.edu:amit1234@data.caida.org/datasets/passive-2014/equinix-chicago/20140918-130000.UTC/equinix-chicago.dirA.20140918-130200.UTC.anon.pcap.gz'
p636
aS'https://aa1603@georgetown.edu:amit1234@data.caida.org/datasets/passive-2014/equinix-chicago/20140918-130000.UTC/equinix-chicago.dirA.20140918-130300.UTC.anon.pcap.gz'
p637
aS'https://aa1603@georgetown.edu:amit1234@data.caida.org/datasets/passive-2014/equinix-chicago/20140918-130000.UTC/equinix-chicago.dirA.20140918-130400.UTC.anon.pcap.gz'
p638
aS'https://aa1603@georgetown.edu:amit1234@data.caida.org/datasets/passive-2014/equinix-chicago/20140918-130000.UTC/equinix-chicago.dirA.20140918-130500.UTC.anon.pcap.gz'
p639
aS'https://aa1603@georgetown.edu:amit1234@data.caida.org/datasets/passive-2014/equinix-chicago/20140918-130000.UTC/equinix-chicago.dirA.20140918-130600.UTC.anon.pcap.gz'
p640
aS'https://aa1603@georgetown.edu:amit1234@data.caida.org/datasets/passive-2014/equinix-chicago/20140918-130000.UTC/equinix-chicago.dirA.20140918-130700.UTC.anon.pcap.gz'
p641
aS'https://aa1603@georgetown.edu:amit1234@data.caida.org/datasets/passive-2014/equinix-chicago/20140918-130000.UTC/equinix-chicago.dirA.20140918-130800.UTC.anon.pcap.gz'
p642
aS'https://aa1603@georgetown.edu:amit1234@data.caida.org/datasets/passive-2014/equinix-chicago/20140918-130000.UTC/equinix-chicago.dirA.20140918-130900.UTC.anon.pcap.gz'
p643
aS'https://aa1603@georgetown.edu:amit1234@data.caida.org/datasets/passive-2014/equinix-chicago/20140918-130000.UTC/equinix-chicago.dirA.20140918-131000.UTC.anon.pcap.gz'
p644
aS'https://aa1603@georgetown.edu:amit1234@data.caida.org/datasets/passive-2014/equinix-chicago/20140918-130000.UTC/equinix-chicago.dirA.20140918-131100.UTC.anon.pcap.gz'
p645
aS'https://aa1603@georgetown.edu:amit1234@data.caida.org/datasets/passive-2014/equinix-chicago/20140918-130000.UTC/equinix-chicago.dirA.20140918-131200.UTC.anon.pcap.gz'
p646
aS'https://aa1603@georgetown.edu:amit1234@data.caida.org/datasets/passive-2014/equinix-chicago/20140918-130000.UTC/equinix-chicago.dirA.20140918-131300.UTC.anon.pcap.gz'
p647
aS'https://aa1603@georgetown.edu:amit1234@data.caida.org/datasets/passive-2014/equinix-chicago/20140918-130000.UTC/equinix-chicago.dirA.20140918-131400.UTC.anon.pcap.gz'
p648
aS'https://aa1603@georgetown.edu:amit1234@data.caida.org/datasets/passive-2014/equinix-chicago/20140918-130000.UTC/equinix-chicago.dirA.20140918-131500.UTC.anon.pcap.gz'
p649
aS'https://aa1603@georgetown.edu:amit1234@data.caida.org/datasets/passive-2014/equinix-chicago/20140918-130000.UTC/equinix-chicago.dirA.20140918-131600.UTC.anon.pcap.gz'
p650
aS'https://aa1603@georgetown.edu:amit1234@data.caida.org/datasets/passive-2014/equinix-chicago/20140918-130000.UTC/equinix-chicago.dirA.20140918-131700.UTC.anon.pcap.gz'
p651
aS'https://aa1603@georgetown.edu:amit1234@data.caida.org/datasets/passive-2014/equinix-chicago/20140918-130000.UTC/equinix-chicago.dirA.20140918-131800.UTC.anon.pcap.gz'
p652
aS'https://aa1603@georgetown.edu:amit1234@data.caida.org/datasets/passive-2014/equinix-chicago/20140918-130000.UTC/equinix-chicago.dirA.20140918-131900.UTC.anon.pcap.gz'
p653
aS'https://aa1603@georgetown.edu:amit1234@data.caida.org/datasets/passive-2014/equinix-chicago/20140918-130000.UTC/equinix-chicago.dirA.20140918-132000.UTC.anon.pcap.gz'
p654
aS'https://aa1603@georgetown.edu:amit1234@data.caida.org/datasets/passive-2014/equinix-chicago/20140918-130000.UTC/equinix-chicago.dirA.20140918-132100.UTC.anon.pcap.gz'
p655
aS'https://aa1603@georgetown.edu:amit1234@data.caida.org/datasets/passive-2014/equinix-chicago/20140918-130000.UTC/equinix-chicago.dirA.20140918-132200.UTC.anon.pcap.gz'
p656
aS'https://aa1603@georgetown.edu:amit1234@data.caida.org/datasets/passive-2014/equinix-chicago/20140918-130000.UTC/equinix-chicago.dirA.20140918-132300.UTC.anon.pcap.gz'
p657
aS'https://aa1603@georgetown.edu:amit1234@data.caida.org/datasets/passive-2014/equinix-chicago/20140918-130000.UTC/equinix-chicago.dirA.20140918-132400.UTC.anon.pcap.gz'
p658
aS'https://aa1603@georgetown.edu:amit1234@data.caida.org/datasets/passive-2014/equinix-chicago/20140918-130000.UTC/equinix-chicago.dirA.20140918-132500.UTC.anon.pcap.gz'
p659
aS'https://aa1603@georgetown.edu:amit1234@data.caida.org/datasets/passive-2014/equinix-chicago/20140918-130000.UTC/equinix-chicago.dirA.20140918-132600.UTC.anon.pcap.gz'
p660
aS'https://aa1603@georgetown.edu:amit1234@data.caida.org/datasets/passive-2014/equinix-chicago/20140918-130000.UTC/equinix-chicago.dirA.20140918-132700.UTC.anon.pcap.gz'
p661
aS'https://aa1603@georgetown.edu:amit1234@data.caida.org/datasets/passive-2014/equinix-chicago/20140918-130000.UTC/equinix-chicago.dirA.20140918-132800.UTC.anon.pcap.gz'
p662
aS'https://aa1603@georgetown.edu:amit1234@data.caida.org/datasets/passive-2014/equinix-chicago/20140918-130000.UTC/equinix-chicago.dirA.20140918-132900.UTC.anon.pcap.gz'
p663
aS'https://aa1603@georgetown.edu:amit1234@data.caida.org/datasets/passive-2014/equinix-chicago/20140918-130000.UTC/equinix-chicago.dirA.20140918-133000.UTC.anon.pcap.gz'
p664
aS'https://aa1603@georgetown.edu:amit1234@data.caida.org/datasets/passive-2014/equinix-chicago/20140918-130000.UTC/equinix-chicago.dirA.20140918-133100.UTC.anon.pcap.gz'
p665
aS'https://aa1603@georgetown.edu:amit1234@data.caida.org/datasets/passive-2014/equinix-chicago/20140918-130000.UTC/equinix-chicago.dirA.20140918-133200.UTC.anon.pcap.gz'
p666
aS'https://aa1603@georgetown.edu:amit1234@data.caida.org/datasets/passive-2014/equinix-chicago/20140918-130000.UTC/equinix-chicago.dirA.20140918-133300.UTC.anon.pcap.gz'
p667
aS'https://aa1603@georgetown.edu:amit1234@data.caida.org/datasets/passive-2014/equinix-chicago/20140918-130000.UTC/equinix-chicago.dirA.20140918-133400.UTC.anon.pcap.gz'
p668
aS'https://aa1603@georgetown.edu:amit1234@data.caida.org/datasets/passive-2014/equinix-chicago/20140918-130000.UTC/equinix-chicago.dirA.20140918-133500.UTC.anon.pcap.gz'
p669
aS'https://aa1603@georgetown.edu:amit1234@data.caida.org/datasets/passive-2014/equinix-chicago/20140918-130000.UTC/equinix-chicago.dirA.20140918-133600.UTC.anon.pcap.gz'
p670
aS'https://aa1603@georgetown.edu:amit1234@data.caida.org/datasets/passive-2014/equinix-chicago/20140918-130000.UTC/equinix-chicago.dirA.20140918-133700.UTC.anon.pcap.gz'
p671
aS'https://aa1603@georgetown.edu:amit1234@data.caida.org/datasets/passive-2014/equinix-chicago/20140918-130000.UTC/equinix-chicago.dirA.20140918-133800.UTC.anon.pcap.gz'
p672
aS'https://aa1603@georgetown.edu:amit1234@data.caida.org/datasets/passive-2014/equinix-chicago/20140918-130000.UTC/equinix-chicago.dirA.20140918-133900.UTC.anon.pcap.gz'
p673
aS'https://aa1603@georgetown.edu:amit1234@data.caida.org/datasets/passive-2014/equinix-chicago/20140918-130000.UTC/equinix-chicago.dirA.20140918-134000.UTC.anon.pcap.gz'
p674
aS'https://aa1603@georgetown.edu:amit1234@data.caida.org/datasets/passive-2014/equinix-chicago/20140918-130000.UTC/equinix-chicago.dirA.20140918-134100.UTC.anon.pcap.gz'
p675
aS'https://aa1603@georgetown.edu:amit1234@data.caida.org/datasets/passive-2014/equinix-chicago/20140918-130000.UTC/equinix-chicago.dirA.20140918-134200.UTC.anon.pcap.gz'
p676
aS'https://aa1603@georgetown.edu:amit1234@data.caida.org/datasets/passive-2014/equinix-chicago/20140918-130000.UTC/equinix-chicago.dirA.20140918-134300.UTC.anon.pcap.gz'
p677
aS'https://aa1603@georgetown.edu:amit1234@data.caida.org/datasets/passive-2014/equinix-chicago/20140918-130000.UTC/equinix-chicago.dirA.20140918-134400.UTC.anon.pcap.gz'
p678
aS'https://aa1603@georgetown.edu:amit1234@data.caida.org/datasets/passive-2014/equinix-chicago/20140918-130000.UTC/equinix-chicago.dirA.20140918-134500.UTC.anon.pcap.gz'
p679
aS'https://aa1603@georgetown.edu:amit1234@data.caida.org/datasets/passive-2014/equinix-chicago/20140918-130000.UTC/equinix-chicago.dirA.20140918-134600.UTC.anon.pcap.gz'
p680
aS'https://aa1603@georgetown.edu:amit1234@data.caida.org/datasets/passive-2014/equinix-chicago/20140918-130000.UTC/equinix-chicago.dirA.20140918-134700.UTC.anon.pcap.gz'
p681
aS'https://aa1603@georgetown.edu:amit1234@data.caida.org/datasets/passive-2014/equinix-chicago/20140918-130000.UTC/equinix-chicago.dirA.20140918-134800.UTC.anon.pcap.gz'
p682
aS'https://aa1603@georgetown.edu:amit1234@data.caida.org/datasets/passive-2014/equinix-chicago/20140918-130000.UTC/equinix-chicago.dirA.20140918-134900.UTC.anon.pcap.gz'
p683
aS'https://aa1603@georgetown.edu:amit1234@data.caida.org/datasets/passive-2014/equinix-chicago/20140918-130000.UTC/equinix-chicago.dirA.20140918-135000.UTC.anon.pcap.gz'
p684
aS'https://aa1603@georgetown.edu:amit1234@data.caida.org/datasets/passive-2014/equinix-chicago/20140918-130000.UTC/equinix-chicago.dirA.20140918-135100.UTC.anon.pcap.gz'
p685
aS'https://aa1603@georgetown.edu:amit1234@data.caida.org/datasets/passive-2014/equinix-chicago/20140918-130000.UTC/equinix-chicago.dirA.20140918-135200.UTC.anon.pcap.gz'
p686
aS'https://aa1603@georgetown.edu:amit1234@data.caida.org/datasets/passive-2014/equinix-chicago/20140918-130000.UTC/equinix-chicago.dirA.20140918-135300.UTC.anon.pcap.gz'
p687
aS'https://aa1603@georgetown.edu:amit1234@data.caida.org/datasets/passive-2014/equinix-chicago/20140918-130000.UTC/equinix-chicago.dirA.20140918-135400.UTC.anon.pcap.gz'
p688
aS'https://aa1603@georgetown.edu:amit1234@data.caida.org/datasets/passive-2014/equinix-chicago/20140918-130000.UTC/equinix-chicago.dirA.20140918-135500.UTC.anon.pcap.gz'
p689
aS'https://aa1603@georgetown.edu:amit1234@data.caida.org/datasets/passive-2014/equinix-chicago/20140918-130000.UTC/equinix-chicago.dirA.20140918-135600.UTC.anon.pcap.gz'
p690
aS'https://aa1603@georgetown.edu:amit1234@data.caida.org/datasets/passive-2014/equinix-chicago/20140918-130000.UTC/equinix-chicago.dirA.20140918-135700.UTC.anon.pcap.gz'
p691
aS'https://aa1603@georgetown.edu:amit1234@data.caida.org/datasets/passive-2014/equinix-chicago/20140918-130000.UTC/equinix-chicago.dirA.20140918-135800.UTC.anon.pcap.gz'
p692
aS'https://aa1603@georgetown.edu:amit1234@data.caida.org/datasets/passive-2014/equinix-chicago/20140918-130000.UTC/equinix-chicago.dirA.20140918-135900.UTC.anon.pcap.gz'
p693
aS'https://aa1603@georgetown.edu:amit1234@data.caida.org/datasets/passive-2014/equinix-chicago/20140918-130000.UTC/equinix-chicago.dirA.20140918-140000.UTC.anon.pcap.gz'
p694
aS'https://aa1603@georgetown.edu:amit1234@data.caida.org/datasets/passive-2014/equinix-chicago/20140918-130000.UTC/equinix-chicago.dirA.20140918-140100.UTC.anon.pcap.gz'
p695
aS'https://aa1603@georgetown.edu:amit1234@data.caida.org/datasets/passive-2014/equinix-chicago/20140918-130000.UTC/equinix-chicago.dirB.20140918-125911.UTC.anon.pcap.gz'
p696
aS'https://aa1603@georgetown.edu:amit1234@data.caida.org/datasets/passive-2014/equinix-chicago/20140918-130000.UTC/equinix-chicago.dirB.20140918-130000.UTC.anon.pcap.gz'
p697
aS'https://aa1603@georgetown.edu:amit1234@data.caida.org/datasets/passive-2014/equinix-chicago/20140918-130000.UTC/equinix-chicago.dirB.20140918-130100.UTC.anon.pcap.gz'
p698
aS'https://aa1603@georgetown.edu:amit1234@data.caida.org/datasets/passive-2014/equinix-chicago/20140918-130000.UTC/equinix-chicago.dirB.20140918-130200.UTC.anon.pcap.gz'
p699
aS'https://aa1603@georgetown.edu:amit1234@data.caida.org/datasets/passive-2014/equinix-chicago/20140918-130000.UTC/equinix-chicago.dirB.20140918-130300.UTC.anon.pcap.gz'
p700
aS'https://aa1603@georgetown.edu:amit1234@data.caida.org/datasets/passive-2014/equinix-chicago/20140918-130000.UTC/equinix-chicago.dirB.20140918-130400.UTC.anon.pcap.gz'
p701
aS'https://aa1603@georgetown.edu:amit1234@data.caida.org/datasets/passive-2014/equinix-chicago/20140918-130000.UTC/equinix-chicago.dirB.20140918-130500.UTC.anon.pcap.gz'
p702
aS'https://aa1603@georgetown.edu:amit1234@data.caida.org/datasets/passive-2014/equinix-chicago/20140918-130000.UTC/equinix-chicago.dirB.20140918-130600.UTC.anon.pcap.gz'
p703
aS'https://aa1603@georgetown.edu:amit1234@data.caida.org/datasets/passive-2014/equinix-chicago/20140918-130000.UTC/equinix-chicago.dirB.20140918-130700.UTC.anon.pcap.gz'
p704
aS'https://aa1603@georgetown.edu:amit1234@data.caida.org/datasets/passive-2014/equinix-chicago/20140918-130000.UTC/equinix-chicago.dirB.20140918-130800.UTC.anon.pcap.gz'
p705
aS'https://aa1603@georgetown.edu:amit1234@data.caida.org/datasets/passive-2014/equinix-chicago/20140918-130000.UTC/equinix-chicago.dirB.20140918-130900.UTC.anon.pcap.gz'
p706
aS'https://aa1603@georgetown.edu:amit1234@data.caida.org/datasets/passive-2014/equinix-chicago/20140918-130000.UTC/equinix-chicago.dirB.20140918-131000.UTC.anon.pcap.gz'
p707
aS'https://aa1603@georgetown.edu:amit1234@data.caida.org/datasets/passive-2014/equinix-chicago/20140918-130000.UTC/equinix-chicago.dirB.20140918-131100.UTC.anon.pcap.gz'
p708
aS'https://aa1603@georgetown.edu:amit1234@data.caida.org/datasets/passive-2014/equinix-chicago/20140918-130000.UTC/equinix-chicago.dirB.20140918-131200.UTC.anon.pcap.gz'
p709
aS'https://aa1603@georgetown.edu:amit1234@data.caida.org/datasets/passive-2014/equinix-chicago/20140918-130000.UTC/equinix-chicago.dirB.20140918-131300.UTC.anon.pcap.gz'
p710
aS'https://aa1603@georgetown.edu:amit1234@data.caida.org/datasets/passive-2014/equinix-chicago/20140918-130000.UTC/equinix-chicago.dirB.20140918-131400.UTC.anon.pcap.gz'
p711
aS'https://aa1603@georgetown.edu:amit1234@data.caida.org/datasets/passive-2014/equinix-chicago/20140918-130000.UTC/equinix-chicago.dirB.20140918-131500.UTC.anon.pcap.gz'
p712
aS'https://aa1603@georgetown.edu:amit1234@data.caida.org/datasets/passive-2014/equinix-chicago/20140918-130000.UTC/equinix-chicago.dirB.20140918-131600.UTC.anon.pcap.gz'
p713
aS'https://aa1603@georgetown.edu:amit1234@data.caida.org/datasets/passive-2014/equinix-chicago/20140918-130000.UTC/equinix-chicago.dirB.20140918-131700.UTC.anon.pcap.gz'
p714
aS'https://aa1603@georgetown.edu:amit1234@data.caida.org/datasets/passive-2014/equinix-chicago/20140918-130000.UTC/equinix-chicago.dirB.20140918-131800.UTC.anon.pcap.gz'
p715
aS'https://aa1603@georgetown.edu:amit1234@data.caida.org/datasets/passive-2014/equinix-chicago/20140918-130000.UTC/equinix-chicago.dirB.20140918-131900.UTC.anon.pcap.gz'
p716
aS'https://aa1603@georgetown.edu:amit1234@data.caida.org/datasets/passive-2014/equinix-chicago/20140918-130000.UTC/equinix-chicago.dirB.20140918-132000.UTC.anon.pcap.gz'
p717
aS'https://aa1603@georgetown.edu:amit1234@data.caida.org/datasets/passive-2014/equinix-chicago/20140918-130000.UTC/equinix-chicago.dirB.20140918-132100.UTC.anon.pcap.gz'
p718
aS'https://aa1603@georgetown.edu:amit1234@data.caida.org/datasets/passive-2014/equinix-chicago/20140918-130000.UTC/equinix-chicago.dirB.20140918-132200.UTC.anon.pcap.gz'
p719
aS'https://aa1603@georgetown.edu:amit1234@data.caida.org/datasets/passive-2014/equinix-chicago/20140918-130000.UTC/equinix-chicago.dirB.20140918-132300.UTC.anon.pcap.gz'
p720
aS'https://aa1603@georgetown.edu:amit1234@data.caida.org/datasets/passive-2014/equinix-chicago/20140918-130000.UTC/equinix-chicago.dirB.20140918-132400.UTC.anon.pcap.gz'
p721
aS'https://aa1603@georgetown.edu:amit1234@data.caida.org/datasets/passive-2014/equinix-chicago/20140918-130000.UTC/equinix-chicago.dirB.20140918-132500.UTC.anon.pcap.gz'
p722
aS'https://aa1603@georgetown.edu:amit1234@data.caida.org/datasets/passive-2014/equinix-chicago/20140918-130000.UTC/equinix-chicago.dirB.20140918-132600.UTC.anon.pcap.gz'
p723
aS'https://aa1603@georgetown.edu:amit1234@data.caida.org/datasets/passive-2014/equinix-chicago/20140918-130000.UTC/equinix-chicago.dirB.20140918-132700.UTC.anon.pcap.gz'
p724
aS'https://aa1603@georgetown.edu:amit1234@data.caida.org/datasets/passive-2014/equinix-chicago/20140918-130000.UTC/equinix-chicago.dirB.20140918-132800.UTC.anon.pcap.gz'
p725
aS'https://aa1603@georgetown.edu:amit1234@data.caida.org/datasets/passive-2014/equinix-chicago/20140918-130000.UTC/equinix-chicago.dirB.20140918-132900.UTC.anon.pcap.gz'
p726
aS'https://aa1603@georgetown.edu:amit1234@data.caida.org/datasets/passive-2014/equinix-chicago/20140918-130000.UTC/equinix-chicago.dirB.20140918-133000.UTC.anon.pcap.gz'
p727
aS'https://aa1603@georgetown.edu:amit1234@data.caida.org/datasets/passive-2014/equinix-chicago/20140918-130000.UTC/equinix-chicago.dirB.20140918-133100.UTC.anon.pcap.gz'
p728
aS'https://aa1603@georgetown.edu:amit1234@data.caida.org/datasets/passive-2014/equinix-chicago/20140918-130000.UTC/equinix-chicago.dirB.20140918-133200.UTC.anon.pcap.gz'
p729
aS'https://aa1603@georgetown.edu:amit1234@data.caida.org/datasets/passive-2014/equinix-chicago/20140918-130000.UTC/equinix-chicago.dirB.20140918-133300.UTC.anon.pcap.gz'
p730
aS'https://aa1603@georgetown.edu:amit1234@data.caida.org/datasets/passive-2014/equinix-chicago/20140918-130000.UTC/equinix-chicago.dirB.20140918-133400.UTC.anon.pcap.gz'
p731
aS'https://aa1603@georgetown.edu:amit1234@data.caida.org/datasets/passive-2014/equinix-chicago/20140918-130000.UTC/equinix-chicago.dirB.20140918-133500.UTC.anon.pcap.gz'
p732
aS'https://aa1603@georgetown.edu:amit1234@data.caida.org/datasets/passive-2014/equinix-chicago/20140918-130000.UTC/equinix-chicago.dirB.20140918-133600.UTC.anon.pcap.gz'
p733
aS'https://aa1603@georgetown.edu:amit1234@data.caida.org/datasets/passive-2014/equinix-chicago/20140918-130000.UTC/equinix-chicago.dirB.20140918-133700.UTC.anon.pcap.gz'
p734
aS'https://aa1603@georgetown.edu:amit1234@data.caida.org/datasets/passive-2014/equinix-chicago/20140918-130000.UTC/equinix-chicago.dirB.20140918-133800.UTC.anon.pcap.gz'
p735
aS'https://aa1603@georgetown.edu:amit1234@data.caida.org/datasets/passive-2014/equinix-chicago/20140918-130000.UTC/equinix-chicago.dirB.20140918-133900.UTC.anon.pcap.gz'
p736
aS'https://aa1603@georgetown.edu:amit1234@data.caida.org/datasets/passive-2014/equinix-chicago/20140918-130000.UTC/equinix-chicago.dirB.20140918-134000.UTC.anon.pcap.gz'
p737
aS'https://aa1603@georgetown.edu:amit1234@data.caida.org/datasets/passive-2014/equinix-chicago/20140918-130000.UTC/equinix-chicago.dirB.20140918-134100.UTC.anon.pcap.gz'
p738
aS'https://aa1603@georgetown.edu:amit1234@data.caida.org/datasets/passive-2014/equinix-chicago/20140918-130000.UTC/equinix-chicago.dirB.20140918-134200.UTC.anon.pcap.gz'
p739
aS'https://aa1603@georgetown.edu:amit1234@data.caida.org/datasets/passive-2014/equinix-chicago/20140918-130000.UTC/equinix-chicago.dirB.20140918-134300.UTC.anon.pcap.gz'
p740
aS'https://aa1603@georgetown.edu:amit1234@data.caida.org/datasets/passive-2014/equinix-chicago/20140918-130000.UTC/equinix-chicago.dirB.20140918-134400.UTC.anon.pcap.gz'
p741
aS'https://aa1603@georgetown.edu:amit1234@data.caida.org/datasets/passive-2014/equinix-chicago/20140918-130000.UTC/equinix-chicago.dirB.20140918-134500.UTC.anon.pcap.gz'
p742
aS'https://aa1603@georgetown.edu:amit1234@data.caida.org/datasets/passive-2014/equinix-chicago/20140918-130000.UTC/equinix-chicago.dirB.20140918-134600.UTC.anon.pcap.gz'
p743
aS'https://aa1603@georgetown.edu:amit1234@data.caida.org/datasets/passive-2014/equinix-chicago/20140918-130000.UTC/equinix-chicago.dirB.20140918-134700.UTC.anon.pcap.gz'
p744
aS'https://aa1603@georgetown.edu:amit1234@data.caida.org/datasets/passive-2014/equinix-chicago/20140918-130000.UTC/equinix-chicago.dirB.20140918-134800.UTC.anon.pcap.gz'
p745
aS'https://aa1603@georgetown.edu:amit1234@data.caida.org/datasets/passive-2014/equinix-chicago/20140918-130000.UTC/equinix-chicago.dirB.20140918-134900.UTC.anon.pcap.gz'
p746
aS'https://aa1603@georgetown.edu:amit1234@data.caida.org/datasets/passive-2014/equinix-chicago/20140918-130000.UTC/equinix-chicago.dirB.20140918-135000.UTC.anon.pcap.gz'
p747
aS'https://aa1603@georgetown.edu:amit1234@data.caida.org/datasets/passive-2014/equinix-chicago/20140918-130000.UTC/equinix-chicago.dirB.20140918-135100.UTC.anon.pcap.gz'
p748
aS'https://aa1603@georgetown.edu:amit1234@data.caida.org/datasets/passive-2014/equinix-chicago/20140918-130000.UTC/equinix-chicago.dirB.20140918-135200.UTC.anon.pcap.gz'
p749
aS'https://aa1603@georgetown.edu:amit1234@data.caida.org/datasets/passive-2014/equinix-chicago/20140918-130000.UTC/equinix-chicago.dirB.20140918-135300.UTC.anon.pcap.gz'
p750
aS'https://aa1603@georgetown.edu:amit1234@data.caida.org/datasets/passive-2014/equinix-chicago/20140918-130000.UTC/equinix-chicago.dirB.20140918-135400.UTC.anon.pcap.gz'
p751
aS'https://aa1603@georgetown.edu:amit1234@data.caida.org/datasets/passive-2014/equinix-chicago/20140918-130000.UTC/equinix-chicago.dirB.20140918-135500.UTC.anon.pcap.gz'
p752
aS'https://aa1603@georgetown.edu:amit1234@data.caida.org/datasets/passive-2014/equinix-chicago/20140918-130000.UTC/equinix-chicago.dirB.20140918-135600.UTC.anon.pcap.gz'
p753
aS'https://aa1603@georgetown.edu:amit1234@data.caida.org/datasets/passive-2014/equinix-chicago/20140918-130000.UTC/equinix-chicago.dirB.20140918-135700.UTC.anon.pcap.gz'
p754
aS'https://aa1603@georgetown.edu:amit1234@data.caida.org/datasets/passive-2014/equinix-chicago/20140918-130000.UTC/equinix-chicago.dirB.20140918-135800.UTC.anon.pcap.gz'
p755
aS'https://aa1603@georgetown.edu:amit1234@data.caida.org/datasets/passive-2014/equinix-chicago/20140918-130000.UTC/equinix-chicago.dirB.20140918-135900.UTC.anon.pcap.gz'
p756
aS'https://aa1603@georgetown.edu:amit1234@data.caida.org/datasets/passive-2014/equinix-chicago/20140918-130000.UTC/equinix-chicago.dirB.20140918-140000.UTC.anon.pcap.gz'
p757
aS'https://aa1603@georgetown.edu:amit1234@data.caida.org/datasets/passive-2014/equinix-chicago/20140918-130000.UTC/equinix-chicago.dirB.20140918-140100.UTC.anon.pcap.gz'
p758
aS'https://aa1603@georgetown.edu:amit1234@data.caida.org/datasets/passive-2015/equinix-chicago/20150219-130000.UTC/equinix-chicago.dirA.20150219-125911.UTC.anon.pcap.gz'
p759
aS'https://aa1603@georgetown.edu:amit1234@data.caida.org/datasets/passive-2015/equinix-chicago/20150219-130000.UTC/equinix-chicago.dirA.20150219-130000.UTC.anon.pcap.gz'
p760
aS'https://aa1603@georgetown.edu:amit1234@data.caida.org/datasets/passive-2015/equinix-chicago/20150219-130000.UTC/equinix-chicago.dirA.20150219-130100.UTC.anon.pcap.gz'
p761
aS'https://aa1603@georgetown.edu:amit1234@data.caida.org/datasets/passive-2015/equinix-chicago/20150219-130000.UTC/equinix-chicago.dirA.20150219-130200.UTC.anon.pcap.gz'
p762
aS'https://aa1603@georgetown.edu:amit1234@data.caida.org/datasets/passive-2015/equinix-chicago/20150219-130000.UTC/equinix-chicago.dirA.20150219-130300.UTC.anon.pcap.gz'
p763
aS'https://aa1603@georgetown.edu:amit1234@data.caida.org/datasets/passive-2015/equinix-chicago/20150219-130000.UTC/equinix-chicago.dirA.20150219-130400.UTC.anon.pcap.gz'
p764
aS'https://aa1603@georgetown.edu:amit1234@data.caida.org/datasets/passive-2015/equinix-chicago/20150219-130000.UTC/equinix-chicago.dirA.20150219-130500.UTC.anon.pcap.gz'
p765
aS'https://aa1603@georgetown.edu:amit1234@data.caida.org/datasets/passive-2015/equinix-chicago/20150219-130000.UTC/equinix-chicago.dirA.20150219-130600.UTC.anon.pcap.gz'
p766
aS'https://aa1603@georgetown.edu:amit1234@data.caida.org/datasets/passive-2015/equinix-chicago/20150219-130000.UTC/equinix-chicago.dirA.20150219-130700.UTC.anon.pcap.gz'
p767
aS'https://aa1603@georgetown.edu:amit1234@data.caida.org/datasets/passive-2015/equinix-chicago/20150219-130000.UTC/equinix-chicago.dirA.20150219-130800.UTC.anon.pcap.gz'
p768
aS'https://aa1603@georgetown.edu:amit1234@data.caida.org/datasets/passive-2015/equinix-chicago/20150219-130000.UTC/equinix-chicago.dirA.20150219-130900.UTC.anon.pcap.gz'
p769
aS'https://aa1603@georgetown.edu:amit1234@data.caida.org/datasets/passive-2015/equinix-chicago/20150219-130000.UTC/equinix-chicago.dirA.20150219-131000.UTC.anon.pcap.gz'
p770
aS'https://aa1603@georgetown.edu:amit1234@data.caida.org/datasets/passive-2015/equinix-chicago/20150219-130000.UTC/equinix-chicago.dirA.20150219-131100.UTC.anon.pcap.gz'
p771
aS'https://aa1603@georgetown.edu:amit1234@data.caida.org/datasets/passive-2015/equinix-chicago/20150219-130000.UTC/equinix-chicago.dirA.20150219-131200.UTC.anon.pcap.gz'
p772
aS'https://aa1603@georgetown.edu:amit1234@data.caida.org/datasets/passive-2015/equinix-chicago/20150219-130000.UTC/equinix-chicago.dirA.20150219-131300.UTC.anon.pcap.gz'
p773
aS'https://aa1603@georgetown.edu:amit1234@data.caida.org/datasets/passive-2015/equinix-chicago/20150219-130000.UTC/equinix-chicago.dirA.20150219-131400.UTC.anon.pcap.gz'
p774
aS'https://aa1603@georgetown.edu:amit1234@data.caida.org/datasets/passive-2015/equinix-chicago/20150219-130000.UTC/equinix-chicago.dirA.20150219-131500.UTC.anon.pcap.gz'
p775
aS'https://aa1603@georgetown.edu:amit1234@data.caida.org/datasets/passive-2015/equinix-chicago/20150219-130000.UTC/equinix-chicago.dirA.20150219-131600.UTC.anon.pcap.gz'
p776
aS'https://aa1603@georgetown.edu:amit1234@data.caida.org/datasets/passive-2015/equinix-chicago/20150219-130000.UTC/equinix-chicago.dirA.20150219-131700.UTC.anon.pcap.gz'
p777
aS'https://aa1603@georgetown.edu:amit1234@data.caida.org/datasets/passive-2015/equinix-chicago/20150219-130000.UTC/equinix-chicago.dirA.20150219-131800.UTC.anon.pcap.gz'
p778
aS'https://aa1603@georgetown.edu:amit1234@data.caida.org/datasets/passive-2015/equinix-chicago/20150219-130000.UTC/equinix-chicago.dirA.20150219-131900.UTC.anon.pcap.gz'
p779
aS'https://aa1603@georgetown.edu:amit1234@data.caida.org/datasets/passive-2015/equinix-chicago/20150219-130000.UTC/equinix-chicago.dirA.20150219-132000.UTC.anon.pcap.gz'
p780
aS'https://aa1603@georgetown.edu:amit1234@data.caida.org/datasets/passive-2015/equinix-chicago/20150219-130000.UTC/equinix-chicago.dirA.20150219-132100.UTC.anon.pcap.gz'
p781
aS'https://aa1603@georgetown.edu:amit1234@data.caida.org/datasets/passive-2015/equinix-chicago/20150219-130000.UTC/equinix-chicago.dirA.20150219-132200.UTC.anon.pcap.gz'
p782
aS'https://aa1603@georgetown.edu:amit1234@data.caida.org/datasets/passive-2015/equinix-chicago/20150219-130000.UTC/equinix-chicago.dirA.20150219-132300.UTC.anon.pcap.gz'
p783
aS'https://aa1603@georgetown.edu:amit1234@data.caida.org/datasets/passive-2015/equinix-chicago/20150219-130000.UTC/equinix-chicago.dirA.20150219-132400.UTC.anon.pcap.gz'
p784
aS'https://aa1603@georgetown.edu:amit1234@data.caida.org/datasets/passive-2015/equinix-chicago/20150219-130000.UTC/equinix-chicago.dirA.20150219-132500.UTC.anon.pcap.gz'
p785
aS'https://aa1603@georgetown.edu:amit1234@data.caida.org/datasets/passive-2015/equinix-chicago/20150219-130000.UTC/equinix-chicago.dirA.20150219-132600.UTC.anon.pcap.gz'
p786
aS'https://aa1603@georgetown.edu:amit1234@data.caida.org/datasets/passive-2015/equinix-chicago/20150219-130000.UTC/equinix-chicago.dirA.20150219-132700.UTC.anon.pcap.gz'
p787
aS'https://aa1603@georgetown.edu:amit1234@data.caida.org/datasets/passive-2015/equinix-chicago/20150219-130000.UTC/equinix-chicago.dirA.20150219-132800.UTC.anon.pcap.gz'
p788
aS'https://aa1603@georgetown.edu:amit1234@data.caida.org/datasets/passive-2015/equinix-chicago/20150219-130000.UTC/equinix-chicago.dirA.20150219-132900.UTC.anon.pcap.gz'
p789
aS'https://aa1603@georgetown.edu:amit1234@data.caida.org/datasets/passive-2015/equinix-chicago/20150219-130000.UTC/equinix-chicago.dirA.20150219-133000.UTC.anon.pcap.gz'
p790
aS'https://aa1603@georgetown.edu:amit1234@data.caida.org/datasets/passive-2015/equinix-chicago/20150219-130000.UTC/equinix-chicago.dirA.20150219-133100.UTC.anon.pcap.gz'
p791
aS'https://aa1603@georgetown.edu:amit1234@data.caida.org/datasets/passive-2015/equinix-chicago/20150219-130000.UTC/equinix-chicago.dirA.20150219-133200.UTC.anon.pcap.gz'
p792
aS'https://aa1603@georgetown.edu:amit1234@data.caida.org/datasets/passive-2015/equinix-chicago/20150219-130000.UTC/equinix-chicago.dirA.20150219-133300.UTC.anon.pcap.gz'
p793
aS'https://aa1603@georgetown.edu:amit1234@data.caida.org/datasets/passive-2015/equinix-chicago/20150219-130000.UTC/equinix-chicago.dirA.20150219-133400.UTC.anon.pcap.gz'
p794
aS'https://aa1603@georgetown.edu:amit1234@data.caida.org/datasets/passive-2015/equinix-chicago/20150219-130000.UTC/equinix-chicago.dirA.20150219-133500.UTC.anon.pcap.gz'
p795
aS'https://aa1603@georgetown.edu:amit1234@data.caida.org/datasets/passive-2015/equinix-chicago/20150219-130000.UTC/equinix-chicago.dirA.20150219-133600.UTC.anon.pcap.gz'
p796
aS'https://aa1603@georgetown.edu:amit1234@data.caida.org/datasets/passive-2015/equinix-chicago/20150219-130000.UTC/equinix-chicago.dirA.20150219-133700.UTC.anon.pcap.gz'
p797
aS'https://aa1603@georgetown.edu:amit1234@data.caida.org/datasets/passive-2015/equinix-chicago/20150219-130000.UTC/equinix-chicago.dirA.20150219-133800.UTC.anon.pcap.gz'
p798
aS'https://aa1603@georgetown.edu:amit1234@data.caida.org/datasets/passive-2015/equinix-chicago/20150219-130000.UTC/equinix-chicago.dirA.20150219-133900.UTC.anon.pcap.gz'
p799
aS'https://aa1603@georgetown.edu:amit1234@data.caida.org/datasets/passive-2015/equinix-chicago/20150219-130000.UTC/equinix-chicago.dirA.20150219-134000.UTC.anon.pcap.gz'
p800
aS'https://aa1603@georgetown.edu:amit1234@data.caida.org/datasets/passive-2015/equinix-chicago/20150219-130000.UTC/equinix-chicago.dirA.20150219-134100.UTC.anon.pcap.gz'
p801
aS'https://aa1603@georgetown.edu:amit1234@data.caida.org/datasets/passive-2015/equinix-chicago/20150219-130000.UTC/equinix-chicago.dirA.20150219-134200.UTC.anon.pcap.gz'
p802
aS'https://aa1603@georgetown.edu:amit1234@data.caida.org/datasets/passive-2015/equinix-chicago/20150219-130000.UTC/equinix-chicago.dirA.20150219-134300.UTC.anon.pcap.gz'
p803
aS'https://aa1603@georgetown.edu:amit1234@data.caida.org/datasets/passive-2015/equinix-chicago/20150219-130000.UTC/equinix-chicago.dirA.20150219-134400.UTC.anon.pcap.gz'
p804
aS'https://aa1603@georgetown.edu:amit1234@data.caida.org/datasets/passive-2015/equinix-chicago/20150219-130000.UTC/equinix-chicago.dirA.20150219-134500.UTC.anon.pcap.gz'
p805
aS'https://aa1603@georgetown.edu:amit1234@data.caida.org/datasets/passive-2015/equinix-chicago/20150219-130000.UTC/equinix-chicago.dirA.20150219-134600.UTC.anon.pcap.gz'
p806
aS'https://aa1603@georgetown.edu:amit1234@data.caida.org/datasets/passive-2015/equinix-chicago/20150219-130000.UTC/equinix-chicago.dirA.20150219-134700.UTC.anon.pcap.gz'
p807
aS'https://aa1603@georgetown.edu:amit1234@data.caida.org/datasets/passive-2015/equinix-chicago/20150219-130000.UTC/equinix-chicago.dirA.20150219-134800.UTC.anon.pcap.gz'
p808
aS'https://aa1603@georgetown.edu:amit1234@data.caida.org/datasets/passive-2015/equinix-chicago/20150219-130000.UTC/equinix-chicago.dirA.20150219-134900.UTC.anon.pcap.gz'
p809
aS'https://aa1603@georgetown.edu:amit1234@data.caida.org/datasets/passive-2015/equinix-chicago/20150219-130000.UTC/equinix-chicago.dirA.20150219-135000.UTC.anon.pcap.gz'
p810
aS'https://aa1603@georgetown.edu:amit1234@data.caida.org/datasets/passive-2015/equinix-chicago/20150219-130000.UTC/equinix-chicago.dirA.20150219-135100.UTC.anon.pcap.gz'
p811
aS'https://aa1603@georgetown.edu:amit1234@data.caida.org/datasets/passive-2015/equinix-chicago/20150219-130000.UTC/equinix-chicago.dirA.20150219-135200.UTC.anon.pcap.gz'
p812
aS'https://aa1603@georgetown.edu:amit1234@data.caida.org/datasets/passive-2015/equinix-chicago/20150219-130000.UTC/equinix-chicago.dirA.20150219-135300.UTC.anon.pcap.gz'
p813
aS'https://aa1603@georgetown.edu:amit1234@data.caida.org/datasets/passive-2015/equinix-chicago/20150219-130000.UTC/equinix-chicago.dirA.20150219-135400.UTC.anon.pcap.gz'
p814
aS'https://aa1603@georgetown.edu:amit1234@data.caida.org/datasets/passive-2015/equinix-chicago/20150219-130000.UTC/equinix-chicago.dirA.20150219-135500.UTC.anon.pcap.gz'
p815
aS'https://aa1603@georgetown.edu:amit1234@data.caida.org/datasets/passive-2015/equinix-chicago/20150219-130000.UTC/equinix-chicago.dirA.20150219-135600.UTC.anon.pcap.gz'
p816
aS'https://aa1603@georgetown.edu:amit1234@data.caida.org/datasets/passive-2015/equinix-chicago/20150219-130000.UTC/equinix-chicago.dirA.20150219-135700.UTC.anon.pcap.gz'
p817
aS'https://aa1603@georgetown.edu:amit1234@data.caida.org/datasets/passive-2015/equinix-chicago/20150219-130000.UTC/equinix-chicago.dirA.20150219-135800.UTC.anon.pcap.gz'
p818
aS'https://aa1603@georgetown.edu:amit1234@data.caida.org/datasets/passive-2015/equinix-chicago/20150219-130000.UTC/equinix-chicago.dirA.20150219-135900.UTC.anon.pcap.gz'
p819
aS'https://aa1603@georgetown.edu:amit1234@data.caida.org/datasets/passive-2015/equinix-chicago/20150219-130000.UTC/equinix-chicago.dirA.20150219-140000.UTC.anon.pcap.gz'
p820
aS'https://aa1603@georgetown.edu:amit1234@data.caida.org/datasets/passive-2015/equinix-chicago/20150219-130000.UTC/equinix-chicago.dirA.20150219-140100.UTC.anon.pcap.gz'
p821
aS'https://aa1603@georgetown.edu:amit1234@data.caida.org/datasets/passive-2015/equinix-chicago/20150219-130000.UTC/equinix-chicago.dirA.20150219-140200.UTC.anon.pcap.gz'
p822
aS'https://aa1603@georgetown.edu:amit1234@data.caida.org/datasets/passive-2015/equinix-chicago/20150219-130000.UTC/equinix-chicago.dirB.20150219-125911.UTC.anon.pcap.gz'
p823
aS'https://aa1603@georgetown.edu:amit1234@data.caida.org/datasets/passive-2015/equinix-chicago/20150219-130000.UTC/equinix-chicago.dirB.20150219-130000.UTC.anon.pcap.gz'
p824
aS'https://aa1603@georgetown.edu:amit1234@data.caida.org/datasets/passive-2015/equinix-chicago/20150219-130000.UTC/equinix-chicago.dirB.20150219-130100.UTC.anon.pcap.gz'
p825
aS'https://aa1603@georgetown.edu:amit1234@data.caida.org/datasets/passive-2015/equinix-chicago/20150219-130000.UTC/equinix-chicago.dirB.20150219-130200.UTC.anon.pcap.gz'
p826
aS'https://aa1603@georgetown.edu:amit1234@data.caida.org/datasets/passive-2015/equinix-chicago/20150219-130000.UTC/equinix-chicago.dirB.20150219-130300.UTC.anon.pcap.gz'
p827
aS'https://aa1603@georgetown.edu:amit1234@data.caida.org/datasets/passive-2015/equinix-chicago/20150219-130000.UTC/equinix-chicago.dirB.20150219-130400.UTC.anon.pcap.gz'
p828
aS'https://aa1603@georgetown.edu:amit1234@data.caida.org/datasets/passive-2015/equinix-chicago/20150219-130000.UTC/equinix-chicago.dirB.20150219-130500.UTC.anon.pcap.gz'
p829
aS'https://aa1603@georgetown.edu:amit1234@data.caida.org/datasets/passive-2015/equinix-chicago/20150219-130000.UTC/equinix-chicago.dirB.20150219-130600.UTC.anon.pcap.gz'
p830
aS'https://aa1603@georgetown.edu:amit1234@data.caida.org/datasets/passive-2015/equinix-chicago/20150219-130000.UTC/equinix-chicago.dirB.20150219-130700.UTC.anon.pcap.gz'
p831
aS'https://aa1603@georgetown.edu:amit1234@data.caida.org/datasets/passive-2015/equinix-chicago/20150219-130000.UTC/equinix-chicago.dirB.20150219-130800.UTC.anon.pcap.gz'
p832
aS'https://aa1603@georgetown.edu:amit1234@data.caida.org/datasets/passive-2015/equinix-chicago/20150219-130000.UTC/equinix-chicago.dirB.20150219-130900.UTC.anon.pcap.gz'
p833
aS'https://aa1603@georgetown.edu:amit1234@data.caida.org/datasets/passive-2015/equinix-chicago/20150219-130000.UTC/equinix-chicago.dirB.20150219-131000.UTC.anon.pcap.gz'
p834
aS'https://aa1603@georgetown.edu:amit1234@data.caida.org/datasets/passive-2015/equinix-chicago/20150219-130000.UTC/equinix-chicago.dirB.20150219-131100.UTC.anon.pcap.gz'
p835
aS'https://aa1603@georgetown.edu:amit1234@data.caida.org/datasets/passive-2015/equinix-chicago/20150219-130000.UTC/equinix-chicago.dirB.20150219-131200.UTC.anon.pcap.gz'
p836
aS'https://aa1603@georgetown.edu:amit1234@data.caida.org/datasets/passive-2015/equinix-chicago/20150219-130000.UTC/equinix-chicago.dirB.20150219-131300.UTC.anon.pcap.gz'
p837
aS'https://aa1603@georgetown.edu:amit1234@data.caida.org/datasets/passive-2015/equinix-chicago/20150219-130000.UTC/equinix-chicago.dirB.20150219-131400.UTC.anon.pcap.gz'
p838
aS'https://aa1603@georgetown.edu:amit1234@data.caida.org/datasets/passive-2015/equinix-chicago/20150219-130000.UTC/equinix-chicago.dirB.20150219-131500.UTC.anon.pcap.gz'
p839
aS'https://aa1603@georgetown.edu:amit1234@data.caida.org/datasets/passive-2015/equinix-chicago/20150219-130000.UTC/equinix-chicago.dirB.20150219-131600.UTC.anon.pcap.gz'
p840
aS'https://aa1603@georgetown.edu:amit1234@data.caida.org/datasets/passive-2015/equinix-chicago/20150219-130000.UTC/equinix-chicago.dirB.20150219-131700.UTC.anon.pcap.gz'
p841
aS'https://aa1603@georgetown.edu:amit1234@data.caida.org/datasets/passive-2015/equinix-chicago/20150219-130000.UTC/equinix-chicago.dirB.20150219-131800.UTC.anon.pcap.gz'
p842
aS'https://aa1603@georgetown.edu:amit1234@data.caida.org/datasets/passive-2015/equinix-chicago/20150219-130000.UTC/equinix-chicago.dirB.20150219-131900.UTC.anon.pcap.gz'
p843
aS'https://aa1603@georgetown.edu:amit1234@data.caida.org/datasets/passive-2015/equinix-chicago/20150219-130000.UTC/equinix-chicago.dirB.20150219-132000.UTC.anon.pcap.gz'
p844
aS'https://aa1603@georgetown.edu:amit1234@data.caida.org/datasets/passive-2015/equinix-chicago/20150219-130000.UTC/equinix-chicago.dirB.20150219-132100.UTC.anon.pcap.gz'
p845
aS'https://aa1603@georgetown.edu:amit1234@data.caida.org/datasets/passive-2015/equinix-chicago/20150219-130000.UTC/equinix-chicago.dirB.20150219-132200.UTC.anon.pcap.gz'
p846
aS'https://aa1603@georgetown.edu:amit1234@data.caida.org/datasets/passive-2015/equinix-chicago/20150219-130000.UTC/equinix-chicago.dirB.20150219-132300.UTC.anon.pcap.gz'
p847
aS'https://aa1603@georgetown.edu:amit1234@data.caida.org/datasets/passive-2015/equinix-chicago/20150219-130000.UTC/equinix-chicago.dirB.20150219-132400.UTC.anon.pcap.gz'
p848
aS'https://aa1603@georgetown.edu:amit1234@data.caida.org/datasets/passive-2015/equinix-chicago/20150219-130000.UTC/equinix-chicago.dirB.20150219-132500.UTC.anon.pcap.gz'
p849
aS'https://aa1603@georgetown.edu:amit1234@data.caida.org/datasets/passive-2015/equinix-chicago/20150219-130000.UTC/equinix-chicago.dirB.20150219-132600.UTC.anon.pcap.gz'
p850
aS'https://aa1603@georgetown.edu:amit1234@data.caida.org/datasets/passive-2015/equinix-chicago/20150219-130000.UTC/equinix-chicago.dirB.20150219-132700.UTC.anon.pcap.gz'
p851
aS'https://aa1603@georgetown.edu:amit1234@data.caida.org/datasets/passive-2015/equinix-chicago/20150219-130000.UTC/equinix-chicago.dirB.20150219-132800.UTC.anon.pcap.gz'
p852
aS'https://aa1603@georgetown.edu:amit1234@data.caida.org/datasets/passive-2015/equinix-chicago/20150219-130000.UTC/equinix-chicago.dirB.20150219-132900.UTC.anon.pcap.gz'
p853
aS'https://aa1603@georgetown.edu:amit1234@data.caida.org/datasets/passive-2015/equinix-chicago/20150219-130000.UTC/equinix-chicago.dirB.20150219-133000.UTC.anon.pcap.gz'
p854
aS'https://aa1603@georgetown.edu:amit1234@data.caida.org/datasets/passive-2015/equinix-chicago/20150219-130000.UTC/equinix-chicago.dirB.20150219-133100.UTC.anon.pcap.gz'
p855
aS'https://aa1603@georgetown.edu:amit1234@data.caida.org/datasets/passive-2015/equinix-chicago/20150219-130000.UTC/equinix-chicago.dirB.20150219-133200.UTC.anon.pcap.gz'
p856
aS'https://aa1603@georgetown.edu:amit1234@data.caida.org/datasets/passive-2015/equinix-chicago/20150219-130000.UTC/equinix-chicago.dirB.20150219-133300.UTC.anon.pcap.gz'
p857
aS'https://aa1603@georgetown.edu:amit1234@data.caida.org/datasets/passive-2015/equinix-chicago/20150219-130000.UTC/equinix-chicago.dirB.20150219-133400.UTC.anon.pcap.gz'
p858
aS'https://aa1603@georgetown.edu:amit1234@data.caida.org/datasets/passive-2015/equinix-chicago/20150219-130000.UTC/equinix-chicago.dirB.20150219-133500.UTC.anon.pcap.gz'
p859
aS'https://aa1603@georgetown.edu:amit1234@data.caida.org/datasets/passive-2015/equinix-chicago/20150219-130000.UTC/equinix-chicago.dirB.20150219-133600.UTC.anon.pcap.gz'
p860
aS'https://aa1603@georgetown.edu:amit1234@data.caida.org/datasets/passive-2015/equinix-chicago/20150219-130000.UTC/equinix-chicago.dirB.20150219-133700.UTC.anon.pcap.gz'
p861
aS'https://aa1603@georgetown.edu:amit1234@data.caida.org/datasets/passive-2015/equinix-chicago/20150219-130000.UTC/equinix-chicago.dirB.20150219-133800.UTC.anon.pcap.gz'
p862
aS'https://aa1603@georgetown.edu:amit1234@data.caida.org/datasets/passive-2015/equinix-chicago/20150219-130000.UTC/equinix-chicago.dirB.20150219-133900.UTC.anon.pcap.gz'
p863
aS'https://aa1603@georgetown.edu:amit1234@data.caida.org/datasets/passive-2015/equinix-chicago/20150219-130000.UTC/equinix-chicago.dirB.20150219-134000.UTC.anon.pcap.gz'
p864
aS'https://aa1603@georgetown.edu:amit1234@data.caida.org/datasets/passive-2015/equinix-chicago/20150219-130000.UTC/equinix-chicago.dirB.20150219-134100.UTC.anon.pcap.gz'
p865
aS'https://aa1603@georgetown.edu:amit1234@data.caida.org/datasets/passive-2015/equinix-chicago/20150219-130000.UTC/equinix-chicago.dirB.20150219-134200.UTC.anon.pcap.gz'
p866
aS'https://aa1603@georgetown.edu:amit1234@data.caida.org/datasets/passive-2015/equinix-chicago/20150219-130000.UTC/equinix-chicago.dirB.20150219-134300.UTC.anon.pcap.gz'
p867
aS'https://aa1603@georgetown.edu:amit1234@data.caida.org/datasets/passive-2015/equinix-chicago/20150219-130000.UTC/equinix-chicago.dirB.20150219-134400.UTC.anon.pcap.gz'
p868
aS'https://aa1603@georgetown.edu:amit1234@data.caida.org/datasets/passive-2015/equinix-chicago/20150219-130000.UTC/equinix-chicago.dirB.20150219-134500.UTC.anon.pcap.gz'
p869
aS'https://aa1603@georgetown.edu:amit1234@data.caida.org/datasets/passive-2015/equinix-chicago/20150219-130000.UTC/equinix-chicago.dirB.20150219-134600.UTC.anon.pcap.gz'
p870
aS'https://aa1603@georgetown.edu:amit1234@data.caida.org/datasets/passive-2015/equinix-chicago/20150219-130000.UTC/equinix-chicago.dirB.20150219-134700.UTC.anon.pcap.gz'
p871
aS'https://aa1603@georgetown.edu:amit1234@data.caida.org/datasets/passive-2015/equinix-chicago/20150219-130000.UTC/equinix-chicago.dirB.20150219-134800.UTC.anon.pcap.gz'
p872
aS'https://aa1603@georgetown.edu:amit1234@data.caida.org/datasets/passive-2015/equinix-chicago/20150219-130000.UTC/equinix-chicago.dirB.20150219-134900.UTC.anon.pcap.gz'
p873
aS'https://aa1603@georgetown.edu:amit1234@data.caida.org/datasets/passive-2015/equinix-chicago/20150219-130000.UTC/equinix-chicago.dirB.20150219-135000.UTC.anon.pcap.gz'
p874
aS'https://aa1603@georgetown.edu:amit1234@data.caida.org/datasets/passive-2015/equinix-chicago/20150219-130000.UTC/equinix-chicago.dirB.20150219-135100.UTC.anon.pcap.gz'
p875
aS'https://aa1603@georgetown.edu:amit1234@data.caida.org/datasets/passive-2015/equinix-chicago/20150219-130000.UTC/equinix-chicago.dirB.20150219-135200.UTC.anon.pcap.gz'
p876
aS'https://aa1603@georgetown.edu:amit1234@data.caida.org/datasets/passive-2015/equinix-chicago/20150219-130000.UTC/equinix-chicago.dirB.20150219-135300.UTC.anon.pcap.gz'
p877
aS'https://aa1603@georgetown.edu:amit1234@data.caida.org/datasets/passive-2015/equinix-chicago/20150219-130000.UTC/equinix-chicago.dirB.20150219-135400.UTC.anon.pcap.gz'
p878
aS'https://aa1603@georgetown.edu:amit1234@data.caida.org/datasets/passive-2015/equinix-chicago/20150219-130000.UTC/equinix-chicago.dirB.20150219-135500.UTC.anon.pcap.gz'
p879
aS'https://aa1603@georgetown.edu:amit1234@data.caida.org/datasets/passive-2015/equinix-chicago/20150219-130000.UTC/equinix-chicago.dirB.20150219-135600.UTC.anon.pcap.gz'
p880
aS'https://aa1603@georgetown.edu:amit1234@data.caida.org/datasets/passive-2015/equinix-chicago/20150219-130000.UTC/equinix-chicago.dirB.20150219-135700.UTC.anon.pcap.gz'
p881
aS'https://aa1603@georgetown.edu:amit1234@data.caida.org/datasets/passive-2015/equinix-chicago/20150219-130000.UTC/equinix-chicago.dirB.20150219-135800.UTC.anon.pcap.gz'
p882
aS'https://aa1603@georgetown.edu:amit1234@data.caida.org/datasets/passive-2015/equinix-chicago/20150219-130000.UTC/equinix-chicago.dirB.20150219-135900.UTC.anon.pcap.gz'
p883
aS'https://aa1603@georgetown.edu:amit1234@data.caida.org/datasets/passive-2015/equinix-chicago/20150219-130000.UTC/equinix-chicago.dirB.20150219-140000.UTC.anon.pcap.gz'
p884
aS'https://aa1603@georgetown.edu:amit1234@data.caida.org/datasets/passive-2015/equinix-chicago/20150219-130000.UTC/equinix-chicago.dirB.20150219-140100.UTC.anon.pcap.gz'
p885
aS'https://aa1603@georgetown.edu:amit1234@data.caida.org/datasets/passive-2015/equinix-chicago/20150219-130000.UTC/equinix-chicago.dirB.20150219-140200.UTC.anon.pcap.gz'
p886
aS'https://aa1603@georgetown.edu:amit1234@data.caida.org/datasets/passive-2015/equinix-chicago/20150521-130000.UTC/equinix-chicago.dirA.20150521-125911.UTC.anon.pcap.gz'
p887
aS'https://aa1603@georgetown.edu:amit1234@data.caida.org/datasets/passive-2015/equinix-chicago/20150521-130000.UTC/equinix-chicago.dirA.20150521-130000.UTC.anon.pcap.gz'
p888
aS'https://aa1603@georgetown.edu:amit1234@data.caida.org/datasets/passive-2015/equinix-chicago/20150521-130000.UTC/equinix-chicago.dirA.20150521-130100.UTC.anon.pcap.gz'
p889
aS'https://aa1603@georgetown.edu:amit1234@data.caida.org/datasets/passive-2015/equinix-chicago/20150521-130000.UTC/equinix-chicago.dirA.20150521-130200.UTC.anon.pcap.gz'
p890
aS'https://aa1603@georgetown.edu:amit1234@data.caida.org/datasets/passive-2015/equinix-chicago/20150521-130000.UTC/equinix-chicago.dirA.20150521-130300.UTC.anon.pcap.gz'
p891
aS'https://aa1603@georgetown.edu:amit1234@data.caida.org/datasets/passive-2015/equinix-chicago/20150521-130000.UTC/equinix-chicago.dirA.20150521-130400.UTC.anon.pcap.gz'
p892
aS'https://aa1603@georgetown.edu:amit1234@data.caida.org/datasets/passive-2015/equinix-chicago/20150521-130000.UTC/equinix-chicago.dirA.20150521-130500.UTC.anon.pcap.gz'
p893
aS'https://aa1603@georgetown.edu:amit1234@data.caida.org/datasets/passive-2015/equinix-chicago/20150521-130000.UTC/equinix-chicago.dirA.20150521-130600.UTC.anon.pcap.gz'
p894
aS'https://aa1603@georgetown.edu:amit1234@data.caida.org/datasets/passive-2015/equinix-chicago/20150521-130000.UTC/equinix-chicago.dirA.20150521-130700.UTC.anon.pcap.gz'
p895
aS'https://aa1603@georgetown.edu:amit1234@data.caida.org/datasets/passive-2015/equinix-chicago/20150521-130000.UTC/equinix-chicago.dirA.20150521-130800.UTC.anon.pcap.gz'
p896
aS'https://aa1603@georgetown.edu:amit1234@data.caida.org/datasets/passive-2015/equinix-chicago/20150521-130000.UTC/equinix-chicago.dirA.20150521-130900.UTC.anon.pcap.gz'
p897
aS'https://aa1603@georgetown.edu:amit1234@data.caida.org/datasets/passive-2015/equinix-chicago/20150521-130000.UTC/equinix-chicago.dirA.20150521-131000.UTC.anon.pcap.gz'
p898
aS'https://aa1603@georgetown.edu:amit1234@data.caida.org/datasets/passive-2015/equinix-chicago/20150521-130000.UTC/equinix-chicago.dirA.20150521-131100.UTC.anon.pcap.gz'
p899
aS'https://aa1603@georgetown.edu:amit1234@data.caida.org/datasets/passive-2015/equinix-chicago/20150521-130000.UTC/equinix-chicago.dirA.20150521-131200.UTC.anon.pcap.gz'
p900
aS'https://aa1603@georgetown.edu:amit1234@data.caida.org/datasets/passive-2015/equinix-chicago/20150521-130000.UTC/equinix-chicago.dirA.20150521-131300.UTC.anon.pcap.gz'
p901
aS'https://aa1603@georgetown.edu:amit1234@data.caida.org/datasets/passive-2015/equinix-chicago/20150521-130000.UTC/equinix-chicago.dirA.20150521-131400.UTC.anon.pcap.gz'
p902
aS'https://aa1603@georgetown.edu:amit1234@data.caida.org/datasets/passive-2015/equinix-chicago/20150521-130000.UTC/equinix-chicago.dirA.20150521-131500.UTC.anon.pcap.gz'
p903
aS'https://aa1603@georgetown.edu:amit1234@data.caida.org/datasets/passive-2015/equinix-chicago/20150521-130000.UTC/equinix-chicago.dirA.20150521-131600.UTC.anon.pcap.gz'
p904
aS'https://aa1603@georgetown.edu:amit1234@data.caida.org/datasets/passive-2015/equinix-chicago/20150521-130000.UTC/equinix-chicago.dirA.20150521-131700.UTC.anon.pcap.gz'
p905
aS'https://aa1603@georgetown.edu:amit1234@data.caida.org/datasets/passive-2015/equinix-chicago/20150521-130000.UTC/equinix-chicago.dirA.20150521-131800.UTC.anon.pcap.gz'
p906
aS'https://aa1603@georgetown.edu:amit1234@data.caida.org/datasets/passive-2015/equinix-chicago/20150521-130000.UTC/equinix-chicago.dirA.20150521-131900.UTC.anon.pcap.gz'
p907
aS'https://aa1603@georgetown.edu:amit1234@data.caida.org/datasets/passive-2015/equinix-chicago/20150521-130000.UTC/equinix-chicago.dirA.20150521-132000.UTC.anon.pcap.gz'
p908
aS'https://aa1603@georgetown.edu:amit1234@data.caida.org/datasets/passive-2015/equinix-chicago/20150521-130000.UTC/equinix-chicago.dirA.20150521-132100.UTC.anon.pcap.gz'
p909
aS'https://aa1603@georgetown.edu:amit1234@data.caida.org/datasets/passive-2015/equinix-chicago/20150521-130000.UTC/equinix-chicago.dirA.20150521-132200.UTC.anon.pcap.gz'
p910
aS'https://aa1603@georgetown.edu:amit1234@data.caida.org/datasets/passive-2015/equinix-chicago/20150521-130000.UTC/equinix-chicago.dirA.20150521-132300.UTC.anon.pcap.gz'
p911
aS'https://aa1603@georgetown.edu:amit1234@data.caida.org/datasets/passive-2015/equinix-chicago/20150521-130000.UTC/equinix-chicago.dirA.20150521-132400.UTC.anon.pcap.gz'
p912
aS'https://aa1603@georgetown.edu:amit1234@data.caida.org/datasets/passive-2015/equinix-chicago/20150521-130000.UTC/equinix-chicago.dirA.20150521-132500.UTC.anon.pcap.gz'
p913
aS'https://aa1603@georgetown.edu:amit1234@data.caida.org/datasets/passive-2015/equinix-chicago/20150521-130000.UTC/equinix-chicago.dirA.20150521-132600.UTC.anon.pcap.gz'
p914
aS'https://aa1603@georgetown.edu:amit1234@data.caida.org/datasets/passive-2015/equinix-chicago/20150521-130000.UTC/equinix-chicago.dirA.20150521-132700.UTC.anon.pcap.gz'
p915
aS'https://aa1603@georgetown.edu:amit1234@data.caida.org/datasets/passive-2015/equinix-chicago/20150521-130000.UTC/equinix-chicago.dirA.20150521-132800.UTC.anon.pcap.gz'
p916
aS'https://aa1603@georgetown.edu:amit1234@data.caida.org/datasets/passive-2015/equinix-chicago/20150521-130000.UTC/equinix-chicago.dirA.20150521-132900.UTC.anon.pcap.gz'
p917
aS'https://aa1603@georgetown.edu:amit1234@data.caida.org/datasets/passive-2015/equinix-chicago/20150521-130000.UTC/equinix-chicago.dirA.20150521-133000.UTC.anon.pcap.gz'
p918
aS'https://aa1603@georgetown.edu:amit1234@data.caida.org/datasets/passive-2015/equinix-chicago/20150521-130000.UTC/equinix-chicago.dirA.20150521-133100.UTC.anon.pcap.gz'
p919
aS'https://aa1603@georgetown.edu:amit1234@data.caida.org/datasets/passive-2015/equinix-chicago/20150521-130000.UTC/equinix-chicago.dirA.20150521-133200.UTC.anon.pcap.gz'
p920
aS'https://aa1603@georgetown.edu:amit1234@data.caida.org/datasets/passive-2015/equinix-chicago/20150521-130000.UTC/equinix-chicago.dirA.20150521-133300.UTC.anon.pcap.gz'
p921
aS'https://aa1603@georgetown.edu:amit1234@data.caida.org/datasets/passive-2015/equinix-chicago/20150521-130000.UTC/equinix-chicago.dirA.20150521-133400.UTC.anon.pcap.gz'
p922
aS'https://aa1603@georgetown.edu:amit1234@data.caida.org/datasets/passive-2015/equinix-chicago/20150521-130000.UTC/equinix-chicago.dirA.20150521-133500.UTC.anon.pcap.gz'
p923
aS'https://aa1603@georgetown.edu:amit1234@data.caida.org/datasets/passive-2015/equinix-chicago/20150521-130000.UTC/equinix-chicago.dirA.20150521-133600.UTC.anon.pcap.gz'
p924
aS'https://aa1603@georgetown.edu:amit1234@data.caida.org/datasets/passive-2015/equinix-chicago/20150521-130000.UTC/equinix-chicago.dirA.20150521-133700.UTC.anon.pcap.gz'
p925
aS'https://aa1603@georgetown.edu:amit1234@data.caida.org/datasets/passive-2015/equinix-chicago/20150521-130000.UTC/equinix-chicago.dirA.20150521-133800.UTC.anon.pcap.gz'
p926
aS'https://aa1603@georgetown.edu:amit1234@data.caida.org/datasets/passive-2015/equinix-chicago/20150521-130000.UTC/equinix-chicago.dirA.20150521-133900.UTC.anon.pcap.gz'
p927
aS'https://aa1603@georgetown.edu:amit1234@data.caida.org/datasets/passive-2015/equinix-chicago/20150521-130000.UTC/equinix-chicago.dirA.20150521-134000.UTC.anon.pcap.gz'
p928
aS'https://aa1603@georgetown.edu:amit1234@data.caida.org/datasets/passive-2015/equinix-chicago/20150521-130000.UTC/equinix-chicago.dirA.20150521-134100.UTC.anon.pcap.gz'
p929
aS'https://aa1603@georgetown.edu:amit1234@data.caida.org/datasets/passive-2015/equinix-chicago/20150521-130000.UTC/equinix-chicago.dirA.20150521-134200.UTC.anon.pcap.gz'
p930
aS'https://aa1603@georgetown.edu:amit1234@data.caida.org/datasets/passive-2015/equinix-chicago/20150521-130000.UTC/equinix-chicago.dirA.20150521-134300.UTC.anon.pcap.gz'
p931
aS'https://aa1603@georgetown.edu:amit1234@data.caida.org/datasets/passive-2015/equinix-chicago/20150521-130000.UTC/equinix-chicago.dirA.20150521-134400.UTC.anon.pcap.gz'
p932
aS'https://aa1603@georgetown.edu:amit1234@data.caida.org/datasets/passive-2015/equinix-chicago/20150521-130000.UTC/equinix-chicago.dirA.20150521-134500.UTC.anon.pcap.gz'
p933
aS'https://aa1603@georgetown.edu:amit1234@data.caida.org/datasets/passive-2015/equinix-chicago/20150521-130000.UTC/equinix-chicago.dirA.20150521-134600.UTC.anon.pcap.gz'
p934
aS'https://aa1603@georgetown.edu:amit1234@data.caida.org/datasets/passive-2015/equinix-chicago/20150521-130000.UTC/equinix-chicago.dirA.20150521-134700.UTC.anon.pcap.gz'
p935
aS'https://aa1603@georgetown.edu:amit1234@data.caida.org/datasets/passive-2015/equinix-chicago/20150521-130000.UTC/equinix-chicago.dirA.20150521-134800.UTC.anon.pcap.gz'
p936
aS'https://aa1603@georgetown.edu:amit1234@data.caida.org/datasets/passive-2015/equinix-chicago/20150521-130000.UTC/equinix-chicago.dirA.20150521-134900.UTC.anon.pcap.gz'
p937
aS'https://aa1603@georgetown.edu:amit1234@data.caida.org/datasets/passive-2015/equinix-chicago/20150521-130000.UTC/equinix-chicago.dirA.20150521-135000.UTC.anon.pcap.gz'
p938
aS'https://aa1603@georgetown.edu:amit1234@data.caida.org/datasets/passive-2015/equinix-chicago/20150521-130000.UTC/equinix-chicago.dirA.20150521-135100.UTC.anon.pcap.gz'
p939
aS'https://aa1603@georgetown.edu:amit1234@data.caida.org/datasets/passive-2015/equinix-chicago/20150521-130000.UTC/equinix-chicago.dirA.20150521-135200.UTC.anon.pcap.gz'
p940
aS'https://aa1603@georgetown.edu:amit1234@data.caida.org/datasets/passive-2015/equinix-chicago/20150521-130000.UTC/equinix-chicago.dirA.20150521-135300.UTC.anon.pcap.gz'
p941
aS'https://aa1603@georgetown.edu:amit1234@data.caida.org/datasets/passive-2015/equinix-chicago/20150521-130000.UTC/equinix-chicago.dirA.20150521-135400.UTC.anon.pcap.gz'
p942
aS'https://aa1603@georgetown.edu:amit1234@data.caida.org/datasets/passive-2015/equinix-chicago/20150521-130000.UTC/equinix-chicago.dirA.20150521-135500.UTC.anon.pcap.gz'
p943
aS'https://aa1603@georgetown.edu:amit1234@data.caida.org/datasets/passive-2015/equinix-chicago/20150521-130000.UTC/equinix-chicago.dirA.20150521-135600.UTC.anon.pcap.gz'
p944
aS'https://aa1603@georgetown.edu:amit1234@data.caida.org/datasets/passive-2015/equinix-chicago/20150521-130000.UTC/equinix-chicago.dirA.20150521-135700.UTC.anon.pcap.gz'
p945
aS'https://aa1603@georgetown.edu:amit1234@data.caida.org/datasets/passive-2015/equinix-chicago/20150521-130000.UTC/equinix-chicago.dirA.20150521-135800.UTC.anon.pcap.gz'
p946
aS'https://aa1603@georgetown.edu:amit1234@data.caida.org/datasets/passive-2015/equinix-chicago/20150521-130000.UTC/equinix-chicago.dirA.20150521-135900.UTC.anon.pcap.gz'
p947
aS'https://aa1603@georgetown.edu:amit1234@data.caida.org/datasets/passive-2015/equinix-chicago/20150521-130000.UTC/equinix-chicago.dirA.20150521-140000.UTC.anon.pcap.gz'
p948
aS'https://aa1603@georgetown.edu:amit1234@data.caida.org/datasets/passive-2015/equinix-chicago/20150521-130000.UTC/equinix-chicago.dirA.20150521-140100.UTC.anon.pcap.gz'
p949
aS'https://aa1603@georgetown.edu:amit1234@data.caida.org/datasets/passive-2015/equinix-chicago/20150521-130000.UTC/equinix-chicago.dirB.20150521-125911.UTC.anon.pcap.gz'
p950
aS'https://aa1603@georgetown.edu:amit1234@data.caida.org/datasets/passive-2015/equinix-chicago/20150521-130000.UTC/equinix-chicago.dirB.20150521-130000.UTC.anon.pcap.gz'
p951
aS'https://aa1603@georgetown.edu:amit1234@data.caida.org/datasets/passive-2015/equinix-chicago/20150521-130000.UTC/equinix-chicago.dirB.20150521-130100.UTC.anon.pcap.gz'
p952
aS'https://aa1603@georgetown.edu:amit1234@data.caida.org/datasets/passive-2015/equinix-chicago/20150521-130000.UTC/equinix-chicago.dirB.20150521-130200.UTC.anon.pcap.gz'
p953
aS'https://aa1603@georgetown.edu:amit1234@data.caida.org/datasets/passive-2015/equinix-chicago/20150521-130000.UTC/equinix-chicago.dirB.20150521-130300.UTC.anon.pcap.gz'
p954
aS'https://aa1603@georgetown.edu:amit1234@data.caida.org/datasets/passive-2015/equinix-chicago/20150521-130000.UTC/equinix-chicago.dirB.20150521-130400.UTC.anon.pcap.gz'
p955
aS'https://aa1603@georgetown.edu:amit1234@data.caida.org/datasets/passive-2015/equinix-chicago/20150521-130000.UTC/equinix-chicago.dirB.20150521-130500.UTC.anon.pcap.gz'
p956
aS'https://aa1603@georgetown.edu:amit1234@data.caida.org/datasets/passive-2015/equinix-chicago/20150521-130000.UTC/equinix-chicago.dirB.20150521-130600.UTC.anon.pcap.gz'
p957
aS'https://aa1603@georgetown.edu:amit1234@data.caida.org/datasets/passive-2015/equinix-chicago/20150521-130000.UTC/equinix-chicago.dirB.20150521-130700.UTC.anon.pcap.gz'
p958
aS'https://aa1603@georgetown.edu:amit1234@data.caida.org/datasets/passive-2015/equinix-chicago/20150521-130000.UTC/equinix-chicago.dirB.20150521-130800.UTC.anon.pcap.gz'
p959
aS'https://aa1603@georgetown.edu:amit1234@data.caida.org/datasets/passive-2015/equinix-chicago/20150521-130000.UTC/equinix-chicago.dirB.20150521-130900.UTC.anon.pcap.gz'
p960
aS'https://aa1603@georgetown.edu:amit1234@data.caida.org/datasets/passive-2015/equinix-chicago/20150521-130000.UTC/equinix-chicago.dirB.20150521-131000.UTC.anon.pcap.gz'
p961
aS'https://aa1603@georgetown.edu:amit1234@data.caida.org/datasets/passive-2015/equinix-chicago/20150521-130000.UTC/equinix-chicago.dirB.20150521-131100.UTC.anon.pcap.gz'
p962
aS'https://aa1603@georgetown.edu:amit1234@data.caida.org/datasets/passive-2015/equinix-chicago/20150521-130000.UTC/equinix-chicago.dirB.20150521-131200.UTC.anon.pcap.gz'
p963
aS'https://aa1603@georgetown.edu:amit1234@data.caida.org/datasets/passive-2015/equinix-chicago/20150521-130000.UTC/equinix-chicago.dirB.20150521-131300.UTC.anon.pcap.gz'
p964
aS'https://aa1603@georgetown.edu:amit1234@data.caida.org/datasets/passive-2015/equinix-chicago/20150521-130000.UTC/equinix-chicago.dirB.20150521-131400.UTC.anon.pcap.gz'
p965
aS'https://aa1603@georgetown.edu:amit1234@data.caida.org/datasets/passive-2015/equinix-chicago/20150521-130000.UTC/equinix-chicago.dirB.20150521-131500.UTC.anon.pcap.gz'
p966
aS'https://aa1603@georgetown.edu:amit1234@data.caida.org/datasets/passive-2015/equinix-chicago/20150521-130000.UTC/equinix-chicago.dirB.20150521-131600.UTC.anon.pcap.gz'
p967
aS'https://aa1603@georgetown.edu:amit1234@data.caida.org/datasets/passive-2015/equinix-chicago/20150521-130000.UTC/equinix-chicago.dirB.20150521-131700.UTC.anon.pcap.gz'
p968
aS'https://aa1603@georgetown.edu:amit1234@data.caida.org/datasets/passive-2015/equinix-chicago/20150521-130000.UTC/equinix-chicago.dirB.20150521-131800.UTC.anon.pcap.gz'
p969
aS'https://aa1603@georgetown.edu:amit1234@data.caida.org/datasets/passive-2015/equinix-chicago/20150521-130000.UTC/equinix-chicago.dirB.20150521-131900.UTC.anon.pcap.gz'
p970
aS'https://aa1603@georgetown.edu:amit1234@data.caida.org/datasets/passive-2015/equinix-chicago/20150521-130000.UTC/equinix-chicago.dirB.20150521-132000.UTC.anon.pcap.gz'
p971
aS'https://aa1603@georgetown.edu:amit1234@data.caida.org/datasets/passive-2015/equinix-chicago/20150521-130000.UTC/equinix-chicago.dirB.20150521-132100.UTC.anon.pcap.gz'
p972
aS'https://aa1603@georgetown.edu:amit1234@data.caida.org/datasets/passive-2015/equinix-chicago/20150521-130000.UTC/equinix-chicago.dirB.20150521-132200.UTC.anon.pcap.gz'
p973
aS'https://aa1603@georgetown.edu:amit1234@data.caida.org/datasets/passive-2015/equinix-chicago/20150521-130000.UTC/equinix-chicago.dirB.20150521-132300.UTC.anon.pcap.gz'
p974
aS'https://aa1603@georgetown.edu:amit1234@data.caida.org/datasets/passive-2015/equinix-chicago/20150521-130000.UTC/equinix-chicago.dirB.20150521-132400.UTC.anon.pcap.gz'
p975
aS'https://aa1603@georgetown.edu:amit1234@data.caida.org/datasets/passive-2015/equinix-chicago/20150521-130000.UTC/equinix-chicago.dirB.20150521-132500.UTC.anon.pcap.gz'
p976
aS'https://aa1603@georgetown.edu:amit1234@data.caida.org/datasets/passive-2015/equinix-chicago/20150521-130000.UTC/equinix-chicago.dirB.20150521-132600.UTC.anon.pcap.gz'
p977
aS'https://aa1603@georgetown.edu:amit1234@data.caida.org/datasets/passive-2015/equinix-chicago/20150521-130000.UTC/equinix-chicago.dirB.20150521-132700.UTC.anon.pcap.gz'
p978
aS'https://aa1603@georgetown.edu:amit1234@data.caida.org/datasets/passive-2015/equinix-chicago/20150521-130000.UTC/equinix-chicago.dirB.20150521-132800.UTC.anon.pcap.gz'
p979
aS'https://aa1603@georgetown.edu:amit1234@data.caida.org/datasets/passive-2015/equinix-chicago/20150521-130000.UTC/equinix-chicago.dirB.20150521-132900.UTC.anon.pcap.gz'
p980
aS'https://aa1603@georgetown.edu:amit1234@data.caida.org/datasets/passive-2015/equinix-chicago/20150521-130000.UTC/equinix-chicago.dirB.20150521-133000.UTC.anon.pcap.gz'
p981
aS'https://aa1603@georgetown.edu:amit1234@data.caida.org/datasets/passive-2015/equinix-chicago/20150521-130000.UTC/equinix-chicago.dirB.20150521-133100.UTC.anon.pcap.gz'
p982
aS'https://aa1603@georgetown.edu:amit1234@data.caida.org/datasets/passive-2015/equinix-chicago/20150521-130000.UTC/equinix-chicago.dirB.20150521-133200.UTC.anon.pcap.gz'
p983
aS'https://aa1603@georgetown.edu:amit1234@data.caida.org/datasets/passive-2015/equinix-chicago/20150521-130000.UTC/equinix-chicago.dirB.20150521-133300.UTC.anon.pcap.gz'
p984
aS'https://aa1603@georgetown.edu:amit1234@data.caida.org/datasets/passive-2015/equinix-chicago/20150521-130000.UTC/equinix-chicago.dirB.20150521-133400.UTC.anon.pcap.gz'
p985
aS'https://aa1603@georgetown.edu:amit1234@data.caida.org/datasets/passive-2015/equinix-chicago/20150521-130000.UTC/equinix-chicago.dirB.20150521-133500.UTC.anon.pcap.gz'
p986
aS'https://aa1603@georgetown.edu:amit1234@data.caida.org/datasets/passive-2015/equinix-chicago/20150521-130000.UTC/equinix-chicago.dirB.20150521-133600.UTC.anon.pcap.gz'
p987
aS'https://aa1603@georgetown.edu:amit1234@data.caida.org/datasets/passive-2015/equinix-chicago/20150521-130000.UTC/equinix-chicago.dirB.20150521-133700.UTC.anon.pcap.gz'
p988
aS'https://aa1603@georgetown.edu:amit1234@data.caida.org/datasets/passive-2015/equinix-chicago/20150521-130000.UTC/equinix-chicago.dirB.20150521-133800.UTC.anon.pcap.gz'
p989
aS'https://aa1603@georgetown.edu:amit1234@data.caida.org/datasets/passive-2015/equinix-chicago/20150521-130000.UTC/equinix-chicago.dirB.20150521-133900.UTC.anon.pcap.gz'
p990
aS'https://aa1603@georgetown.edu:amit1234@data.caida.org/datasets/passive-2015/equinix-chicago/20150521-130000.UTC/equinix-chicago.dirB.20150521-134000.UTC.anon.pcap.gz'
p991
aS'https://aa1603@georgetown.edu:amit1234@data.caida.org/datasets/passive-2015/equinix-chicago/20150521-130000.UTC/equinix-chicago.dirB.20150521-134100.UTC.anon.pcap.gz'
p992
aS'https://aa1603@georgetown.edu:amit1234@data.caida.org/datasets/passive-2015/equinix-chicago/20150521-130000.UTC/equinix-chicago.dirB.20150521-134200.UTC.anon.pcap.gz'
p993
aS'https://aa1603@georgetown.edu:amit1234@data.caida.org/datasets/passive-2015/equinix-chicago/20150521-130000.UTC/equinix-chicago.dirB.20150521-134300.UTC.anon.pcap.gz'
p994
aS'https://aa1603@georgetown.edu:amit1234@data.caida.org/datasets/passive-2015/equinix-chicago/20150521-130000.UTC/equinix-chicago.dirB.20150521-134400.UTC.anon.pcap.gz'
p995
aS'https://aa1603@georgetown.edu:amit1234@data.caida.org/datasets/passive-2015/equinix-chicago/20150521-130000.UTC/equinix-chicago.dirB.20150521-134500.UTC.anon.pcap.gz'
p996
aS'https://aa1603@georgetown.edu:amit1234@data.caida.org/datasets/passive-2015/equinix-chicago/20150521-130000.UTC/equinix-chicago.dirB.20150521-134600.UTC.anon.pcap.gz'
p997
aS'https://aa1603@georgetown.edu:amit1234@data.caida.org/datasets/passive-2015/equinix-chicago/20150521-130000.UTC/equinix-chicago.dirB.20150521-134700.UTC.anon.pcap.gz'
p998
aS'https://aa1603@georgetown.edu:amit1234@data.caida.org/datasets/passive-2015/equinix-chicago/20150521-130000.UTC/equinix-chicago.dirB.20150521-134800.UTC.anon.pcap.gz'
p999
aS'https://aa1603@georgetown.edu:amit1234@data.caida.org/datasets/passive-2015/equinix-chicago/20150521-130000.UTC/equinix-chicago.dirB.20150521-134900.UTC.anon.pcap.gz'
p1000
aS'https://aa1603@georgetown.edu:amit1234@data.caida.org/datasets/passive-2015/equinix-chicago/20150521-130000.UTC/equinix-chicago.dirB.20150521-135000.UTC.anon.pcap.gz'
p1001
aS'https://aa1603@georgetown.edu:amit1234@data.caida.org/datasets/passive-2015/equinix-chicago/20150521-130000.UTC/equinix-chicago.dirB.20150521-135100.UTC.anon.pcap.gz'
p1002
aS'https://aa1603@georgetown.edu:amit1234@data.caida.org/datasets/passive-2015/equinix-chicago/20150521-130000.UTC/equinix-chicago.dirB.20150521-135200.UTC.anon.pcap.gz'
p1003
aS'https://aa1603@georgetown.edu:amit1234@data.caida.org/datasets/passive-2015/equinix-chicago/20150521-130000.UTC/equinix-chicago.dirB.20150521-135300.UTC.anon.pcap.gz'
p1004
aS'https://aa1603@georgetown.edu:amit1234@data.caida.org/datasets/passive-2015/equinix-chicago/20150521-130000.UTC/equinix-chicago.dirB.20150521-135400.UTC.anon.pcap.gz'
p1005
aS'https://aa1603@georgetown.edu:amit1234@data.caida.org/datasets/passive-2015/equinix-chicago/20150521-130000.UTC/equinix-chicago.dirB.20150521-135500.UTC.anon.pcap.gz'
p1006
aS'https://aa1603@georgetown.edu:amit1234@data.caida.org/datasets/passive-2015/equinix-chicago/20150521-130000.UTC/equinix-chicago.dirB.20150521-135600.UTC.anon.pcap.gz'
p1007
aS'https://aa1603@georgetown.edu:amit1234@data.caida.org/datasets/passive-2015/equinix-chicago/20150521-130000.UTC/equinix-chicago.dirB.20150521-135700.UTC.anon.pcap.gz'
p1008
aS'https://aa1603@georgetown.edu:amit1234@data.caida.org/datasets/passive-2015/equinix-chicago/20150521-130000.UTC/equinix-chicago.dirB.20150521-135800.UTC.anon.pcap.gz'
p1009
aS'https://aa1603@georgetown.edu:amit1234@data.caida.org/datasets/passive-2015/equinix-chicago/20150521-130000.UTC/equinix-chicago.dirB.20150521-135900.UTC.anon.pcap.gz'
p1010
aS'https://aa1603@georgetown.edu:amit1234@data.caida.org/datasets/passive-2015/equinix-chicago/20150521-130000.UTC/equinix-chicago.dirB.20150521-140000.UTC.anon.pcap.gz'
p1011
aS'https://aa1603@georgetown.edu:amit1234@data.caida.org/datasets/passive-2015/equinix-chicago/20150521-130000.UTC/equinix-chicago.dirB.20150521-140100.UTC.anon.pcap.gz'
p1012
aS'https://aa1603@georgetown.edu:amit1234@data.caida.org/datasets/passive-2015/equinix-chicago/20150917-130000.UTC/equinix-chicago.dirA.20150917-125911.UTC.anon.pcap.gz'
p1013
aS'https://aa1603@georgetown.edu:amit1234@data.caida.org/datasets/passive-2015/equinix-chicago/20150917-130000.UTC/equinix-chicago.dirA.20150917-130000.UTC.anon.pcap.gz'
p1014
aS'https://aa1603@georgetown.edu:amit1234@data.caida.org/datasets/passive-2015/equinix-chicago/20150917-130000.UTC/equinix-chicago.dirA.20150917-130100.UTC.anon.pcap.gz'
p1015
aS'https://aa1603@georgetown.edu:amit1234@data.caida.org/datasets/passive-2015/equinix-chicago/20150917-130000.UTC/equinix-chicago.dirA.20150917-130200.UTC.anon.pcap.gz'
p1016
aS'https://aa1603@georgetown.edu:amit1234@data.caida.org/datasets/passive-2015/equinix-chicago/20150917-130000.UTC/equinix-chicago.dirA.20150917-130300.UTC.anon.pcap.gz'
p1017
aS'https://aa1603@georgetown.edu:amit1234@data.caida.org/datasets/passive-2015/equinix-chicago/20150917-130000.UTC/equinix-chicago.dirA.20150917-130400.UTC.anon.pcap.gz'
p1018
aS'https://aa1603@georgetown.edu:amit1234@data.caida.org/datasets/passive-2015/equinix-chicago/20150917-130000.UTC/equinix-chicago.dirA.20150917-130500.UTC.anon.pcap.gz'
p1019
aS'https://aa1603@georgetown.edu:amit1234@data.caida.org/datasets/passive-2015/equinix-chicago/20150917-130000.UTC/equinix-chicago.dirA.20150917-130600.UTC.anon.pcap.gz'
p1020
aS'https://aa1603@georgetown.edu:amit1234@data.caida.org/datasets/passive-2015/equinix-chicago/20150917-130000.UTC/equinix-chicago.dirA.20150917-130700.UTC.anon.pcap.gz'
p1021
aS'https://aa1603@georgetown.edu:amit1234@data.caida.org/datasets/passive-2015/equinix-chicago/20150917-130000.UTC/equinix-chicago.dirA.20150917-130800.UTC.anon.pcap.gz'
p1022
aS'https://aa1603@georgetown.edu:amit1234@data.caida.org/datasets/passive-2015/equinix-chicago/20150917-130000.UTC/equinix-chicago.dirA.20150917-130900.UTC.anon.pcap.gz'
p1023
aS'https://aa1603@georgetown.edu:amit1234@data.caida.org/datasets/passive-2015/equinix-chicago/20150917-130000.UTC/equinix-chicago.dirA.20150917-131000.UTC.anon.pcap.gz'
p1024
aS'https://aa1603@georgetown.edu:amit1234@data.caida.org/datasets/passive-2015/equinix-chicago/20150917-130000.UTC/equinix-chicago.dirA.20150917-131100.UTC.anon.pcap.gz'
p1025
aS'https://aa1603@georgetown.edu:amit1234@data.caida.org/datasets/passive-2015/equinix-chicago/20150917-130000.UTC/equinix-chicago.dirA.20150917-131200.UTC.anon.pcap.gz'
p1026
aS'https://aa1603@georgetown.edu:amit1234@data.caida.org/datasets/passive-2015/equinix-chicago/20150917-130000.UTC/equinix-chicago.dirA.20150917-131300.UTC.anon.pcap.gz'
p1027
aS'https://aa1603@georgetown.edu:amit1234@data.caida.org/datasets/passive-2015/equinix-chicago/20150917-130000.UTC/equinix-chicago.dirA.20150917-131400.UTC.anon.pcap.gz'
p1028
aS'https://aa1603@georgetown.edu:amit1234@data.caida.org/datasets/passive-2015/equinix-chicago/20150917-130000.UTC/equinix-chicago.dirA.20150917-131500.UTC.anon.pcap.gz'
p1029
aS'https://aa1603@georgetown.edu:amit1234@data.caida.org/datasets/passive-2015/equinix-chicago/20150917-130000.UTC/equinix-chicago.dirA.20150917-131600.UTC.anon.pcap.gz'
p1030
aS'https://aa1603@georgetown.edu:amit1234@data.caida.org/datasets/passive-2015/equinix-chicago/20150917-130000.UTC/equinix-chicago.dirA.20150917-131700.UTC.anon.pcap.gz'
p1031
aS'https://aa1603@georgetown.edu:amit1234@data.caida.org/datasets/passive-2015/equinix-chicago/20150917-130000.UTC/equinix-chicago.dirA.20150917-131800.UTC.anon.pcap.gz'
p1032
aS'https://aa1603@georgetown.edu:amit1234@data.caida.org/datasets/passive-2015/equinix-chicago/20150917-130000.UTC/equinix-chicago.dirA.20150917-131900.UTC.anon.pcap.gz'
p1033
aS'https://aa1603@georgetown.edu:amit1234@data.caida.org/datasets/passive-2015/equinix-chicago/20150917-130000.UTC/equinix-chicago.dirA.20150917-132000.UTC.anon.pcap.gz'
p1034
aS'https://aa1603@georgetown.edu:amit1234@data.caida.org/datasets/passive-2015/equinix-chicago/20150917-130000.UTC/equinix-chicago.dirA.20150917-132100.UTC.anon.pcap.gz'
p1035
aS'https://aa1603@georgetown.edu:amit1234@data.caida.org/datasets/passive-2015/equinix-chicago/20150917-130000.UTC/equinix-chicago.dirA.20150917-132200.UTC.anon.pcap.gz'
p1036
aS'https://aa1603@georgetown.edu:amit1234@data.caida.org/datasets/passive-2015/equinix-chicago/20150917-130000.UTC/equinix-chicago.dirA.20150917-132300.UTC.anon.pcap.gz'
p1037
aS'https://aa1603@georgetown.edu:amit1234@data.caida.org/datasets/passive-2015/equinix-chicago/20150917-130000.UTC/equinix-chicago.dirA.20150917-132400.UTC.anon.pcap.gz'
p1038
aS'https://aa1603@georgetown.edu:amit1234@data.caida.org/datasets/passive-2015/equinix-chicago/20150917-130000.UTC/equinix-chicago.dirA.20150917-132500.UTC.anon.pcap.gz'
p1039
aS'https://aa1603@georgetown.edu:amit1234@data.caida.org/datasets/passive-2015/equinix-chicago/20150917-130000.UTC/equinix-chicago.dirA.20150917-132600.UTC.anon.pcap.gz'
p1040
aS'https://aa1603@georgetown.edu:amit1234@data.caida.org/datasets/passive-2015/equinix-chicago/20150917-130000.UTC/equinix-chicago.dirA.20150917-132700.UTC.anon.pcap.gz'
p1041
aS'https://aa1603@georgetown.edu:amit1234@data.caida.org/datasets/passive-2015/equinix-chicago/20150917-130000.UTC/equinix-chicago.dirA.20150917-132800.UTC.anon.pcap.gz'
p1042
aS'https://aa1603@georgetown.edu:amit1234@data.caida.org/datasets/passive-2015/equinix-chicago/20150917-130000.UTC/equinix-chicago.dirA.20150917-132900.UTC.anon.pcap.gz'
p1043
aS'https://aa1603@georgetown.edu:amit1234@data.caida.org/datasets/passive-2015/equinix-chicago/20150917-130000.UTC/equinix-chicago.dirA.20150917-133000.UTC.anon.pcap.gz'
p1044
aS'https://aa1603@georgetown.edu:amit1234@data.caida.org/datasets/passive-2015/equinix-chicago/20150917-130000.UTC/equinix-chicago.dirA.20150917-133100.UTC.anon.pcap.gz'
p1045
aS'https://aa1603@georgetown.edu:amit1234@data.caida.org/datasets/passive-2015/equinix-chicago/20150917-130000.UTC/equinix-chicago.dirA.20150917-133200.UTC.anon.pcap.gz'
p1046
aS'https://aa1603@georgetown.edu:amit1234@data.caida.org/datasets/passive-2015/equinix-chicago/20150917-130000.UTC/equinix-chicago.dirA.20150917-133300.UTC.anon.pcap.gz'
p1047
aS'https://aa1603@georgetown.edu:amit1234@data.caida.org/datasets/passive-2015/equinix-chicago/20150917-130000.UTC/equinix-chicago.dirA.20150917-133400.UTC.anon.pcap.gz'
p1048
aS'https://aa1603@georgetown.edu:amit1234@data.caida.org/datasets/passive-2015/equinix-chicago/20150917-130000.UTC/equinix-chicago.dirA.20150917-133500.UTC.anon.pcap.gz'
p1049
aS'https://aa1603@georgetown.edu:amit1234@data.caida.org/datasets/passive-2015/equinix-chicago/20150917-130000.UTC/equinix-chicago.dirA.20150917-133600.UTC.anon.pcap.gz'
p1050
aS'https://aa1603@georgetown.edu:amit1234@data.caida.org/datasets/passive-2015/equinix-chicago/20150917-130000.UTC/equinix-chicago.dirA.20150917-133700.UTC.anon.pcap.gz'
p1051
aS'https://aa1603@georgetown.edu:amit1234@data.caida.org/datasets/passive-2015/equinix-chicago/20150917-130000.UTC/equinix-chicago.dirA.20150917-133800.UTC.anon.pcap.gz'
p1052
aS'https://aa1603@georgetown.edu:amit1234@data.caida.org/datasets/passive-2015/equinix-chicago/20150917-130000.UTC/equinix-chicago.dirA.20150917-133900.UTC.anon.pcap.gz'
p1053
aS'https://aa1603@georgetown.edu:amit1234@data.caida.org/datasets/passive-2015/equinix-chicago/20150917-130000.UTC/equinix-chicago.dirA.20150917-134000.UTC.anon.pcap.gz'
p1054
aS'https://aa1603@georgetown.edu:amit1234@data.caida.org/datasets/passive-2015/equinix-chicago/20150917-130000.UTC/equinix-chicago.dirA.20150917-134100.UTC.anon.pcap.gz'
p1055
aS'https://aa1603@georgetown.edu:amit1234@data.caida.org/datasets/passive-2015/equinix-chicago/20150917-130000.UTC/equinix-chicago.dirA.20150917-134200.UTC.anon.pcap.gz'
p1056
aS'https://aa1603@georgetown.edu:amit1234@data.caida.org/datasets/passive-2015/equinix-chicago/20150917-130000.UTC/equinix-chicago.dirA.20150917-134300.UTC.anon.pcap.gz'
p1057
aS'https://aa1603@georgetown.edu:amit1234@data.caida.org/datasets/passive-2015/equinix-chicago/20150917-130000.UTC/equinix-chicago.dirA.20150917-134400.UTC.anon.pcap.gz'
p1058
aS'https://aa1603@georgetown.edu:amit1234@data.caida.org/datasets/passive-2015/equinix-chicago/20150917-130000.UTC/equinix-chicago.dirA.20150917-134500.UTC.anon.pcap.gz'
p1059
aS'https://aa1603@georgetown.edu:amit1234@data.caida.org/datasets/passive-2015/equinix-chicago/20150917-130000.UTC/equinix-chicago.dirA.20150917-134600.UTC.anon.pcap.gz'
p1060
aS'https://aa1603@georgetown.edu:amit1234@data.caida.org/datasets/passive-2015/equinix-chicago/20150917-130000.UTC/equinix-chicago.dirA.20150917-134700.UTC.anon.pcap.gz'
p1061
aS'https://aa1603@georgetown.edu:amit1234@data.caida.org/datasets/passive-2015/equinix-chicago/20150917-130000.UTC/equinix-chicago.dirA.20150917-134800.UTC.anon.pcap.gz'
p1062
aS'https://aa1603@georgetown.edu:amit1234@data.caida.org/datasets/passive-2015/equinix-chicago/20150917-130000.UTC/equinix-chicago.dirA.20150917-134900.UTC.anon.pcap.gz'
p1063
aS'https://aa1603@georgetown.edu:amit1234@data.caida.org/datasets/passive-2015/equinix-chicago/20150917-130000.UTC/equinix-chicago.dirA.20150917-135000.UTC.anon.pcap.gz'
p1064
aS'https://aa1603@georgetown.edu:amit1234@data.caida.org/datasets/passive-2015/equinix-chicago/20150917-130000.UTC/equinix-chicago.dirA.20150917-135100.UTC.anon.pcap.gz'
p1065
aS'https://aa1603@georgetown.edu:amit1234@data.caida.org/datasets/passive-2015/equinix-chicago/20150917-130000.UTC/equinix-chicago.dirA.20150917-135200.UTC.anon.pcap.gz'
p1066
aS'https://aa1603@georgetown.edu:amit1234@data.caida.org/datasets/passive-2015/equinix-chicago/20150917-130000.UTC/equinix-chicago.dirA.20150917-135300.UTC.anon.pcap.gz'
p1067
aS'https://aa1603@georgetown.edu:amit1234@data.caida.org/datasets/passive-2015/equinix-chicago/20150917-130000.UTC/equinix-chicago.dirA.20150917-135400.UTC.anon.pcap.gz'
p1068
aS'https://aa1603@georgetown.edu:amit1234@data.caida.org/datasets/passive-2015/equinix-chicago/20150917-130000.UTC/equinix-chicago.dirA.20150917-135500.UTC.anon.pcap.gz'
p1069
aS'https://aa1603@georgetown.edu:amit1234@data.caida.org/datasets/passive-2015/equinix-chicago/20150917-130000.UTC/equinix-chicago.dirA.20150917-135600.UTC.anon.pcap.gz'
p1070
aS'https://aa1603@georgetown.edu:amit1234@data.caida.org/datasets/passive-2015/equinix-chicago/20150917-130000.UTC/equinix-chicago.dirA.20150917-135700.UTC.anon.pcap.gz'
p1071
aS'https://aa1603@georgetown.edu:amit1234@data.caida.org/datasets/passive-2015/equinix-chicago/20150917-130000.UTC/equinix-chicago.dirA.20150917-135800.UTC.anon.pcap.gz'
p1072
aS'https://aa1603@georgetown.edu:amit1234@data.caida.org/datasets/passive-2015/equinix-chicago/20150917-130000.UTC/equinix-chicago.dirA.20150917-135900.UTC.anon.pcap.gz'
p1073
aS'https://aa1603@georgetown.edu:amit1234@data.caida.org/datasets/passive-2015/equinix-chicago/20150917-130000.UTC/equinix-chicago.dirA.20150917-140000.UTC.anon.pcap.gz'
p1074
aS'https://aa1603@georgetown.edu:amit1234@data.caida.org/datasets/passive-2015/equinix-chicago/20150917-130000.UTC/equinix-chicago.dirA.20150917-140100.UTC.anon.pcap.gz'
p1075
aS'https://aa1603@georgetown.edu:amit1234@data.caida.org/datasets/passive-2015/equinix-chicago/20150917-130000.UTC/equinix-chicago.dirB.20150917-125911.UTC.anon.pcap.gz'
p1076
aS'https://aa1603@georgetown.edu:amit1234@data.caida.org/datasets/passive-2015/equinix-chicago/20150917-130000.UTC/equinix-chicago.dirB.20150917-130000.UTC.anon.pcap.gz'
p1077
aS'https://aa1603@georgetown.edu:amit1234@data.caida.org/datasets/passive-2015/equinix-chicago/20150917-130000.UTC/equinix-chicago.dirB.20150917-130100.UTC.anon.pcap.gz'
p1078
aS'https://aa1603@georgetown.edu:amit1234@data.caida.org/datasets/passive-2015/equinix-chicago/20150917-130000.UTC/equinix-chicago.dirB.20150917-130200.UTC.anon.pcap.gz'
p1079
aS'https://aa1603@georgetown.edu:amit1234@data.caida.org/datasets/passive-2015/equinix-chicago/20150917-130000.UTC/equinix-chicago.dirB.20150917-130300.UTC.anon.pcap.gz'
p1080
aS'https://aa1603@georgetown.edu:amit1234@data.caida.org/datasets/passive-2015/equinix-chicago/20150917-130000.UTC/equinix-chicago.dirB.20150917-130400.UTC.anon.pcap.gz'
p1081
aS'https://aa1603@georgetown.edu:amit1234@data.caida.org/datasets/passive-2015/equinix-chicago/20150917-130000.UTC/equinix-chicago.dirB.20150917-130500.UTC.anon.pcap.gz'
p1082
aS'https://aa1603@georgetown.edu:amit1234@data.caida.org/datasets/passive-2015/equinix-chicago/20150917-130000.UTC/equinix-chicago.dirB.20150917-130600.UTC.anon.pcap.gz'
p1083
aS'https://aa1603@georgetown.edu:amit1234@data.caida.org/datasets/passive-2015/equinix-chicago/20150917-130000.UTC/equinix-chicago.dirB.20150917-130700.UTC.anon.pcap.gz'
p1084
aS'https://aa1603@georgetown.edu:amit1234@data.caida.org/datasets/passive-2015/equinix-chicago/20150917-130000.UTC/equinix-chicago.dirB.20150917-130800.UTC.anon.pcap.gz'
p1085
aS'https://aa1603@georgetown.edu:amit1234@data.caida.org/datasets/passive-2015/equinix-chicago/20150917-130000.UTC/equinix-chicago.dirB.20150917-130900.UTC.anon.pcap.gz'
p1086
aS'https://aa1603@georgetown.edu:amit1234@data.caida.org/datasets/passive-2015/equinix-chicago/20150917-130000.UTC/equinix-chicago.dirB.20150917-131000.UTC.anon.pcap.gz'
p1087
aS'https://aa1603@georgetown.edu:amit1234@data.caida.org/datasets/passive-2015/equinix-chicago/20150917-130000.UTC/equinix-chicago.dirB.20150917-131100.UTC.anon.pcap.gz'
p1088
aS'https://aa1603@georgetown.edu:amit1234@data.caida.org/datasets/passive-2015/equinix-chicago/20150917-130000.UTC/equinix-chicago.dirB.20150917-131200.UTC.anon.pcap.gz'
p1089
aS'https://aa1603@georgetown.edu:amit1234@data.caida.org/datasets/passive-2015/equinix-chicago/20150917-130000.UTC/equinix-chicago.dirB.20150917-131300.UTC.anon.pcap.gz'
p1090
aS'https://aa1603@georgetown.edu:amit1234@data.caida.org/datasets/passive-2015/equinix-chicago/20150917-130000.UTC/equinix-chicago.dirB.20150917-131400.UTC.anon.pcap.gz'
p1091
aS'https://aa1603@georgetown.edu:amit1234@data.caida.org/datasets/passive-2015/equinix-chicago/20150917-130000.UTC/equinix-chicago.dirB.20150917-131500.UTC.anon.pcap.gz'
p1092
aS'https://aa1603@georgetown.edu:amit1234@data.caida.org/datasets/passive-2015/equinix-chicago/20150917-130000.UTC/equinix-chicago.dirB.20150917-131600.UTC.anon.pcap.gz'
p1093
aS'https://aa1603@georgetown.edu:amit1234@data.caida.org/datasets/passive-2015/equinix-chicago/20150917-130000.UTC/equinix-chicago.dirB.20150917-131700.UTC.anon.pcap.gz'
p1094
aS'https://aa1603@georgetown.edu:amit1234@data.caida.org/datasets/passive-2015/equinix-chicago/20150917-130000.UTC/equinix-chicago.dirB.20150917-131800.UTC.anon.pcap.gz'
p1095
aS'https://aa1603@georgetown.edu:amit1234@data.caida.org/datasets/passive-2015/equinix-chicago/20150917-130000.UTC/equinix-chicago.dirB.20150917-131900.UTC.anon.pcap.gz'
p1096
aS'https://aa1603@georgetown.edu:amit1234@data.caida.org/datasets/passive-2015/equinix-chicago/20150917-130000.UTC/equinix-chicago.dirB.20150917-132000.UTC.anon.pcap.gz'
p1097
aS'https://aa1603@georgetown.edu:amit1234@data.caida.org/datasets/passive-2015/equinix-chicago/20150917-130000.UTC/equinix-chicago.dirB.20150917-132100.UTC.anon.pcap.gz'
p1098
aS'https://aa1603@georgetown.edu:amit1234@data.caida.org/datasets/passive-2015/equinix-chicago/20150917-130000.UTC/equinix-chicago.dirB.20150917-132200.UTC.anon.pcap.gz'
p1099
aS'https://aa1603@georgetown.edu:amit1234@data.caida.org/datasets/passive-2015/equinix-chicago/20150917-130000.UTC/equinix-chicago.dirB.20150917-132300.UTC.anon.pcap.gz'
p1100
aS'https://aa1603@georgetown.edu:amit1234@data.caida.org/datasets/passive-2015/equinix-chicago/20150917-130000.UTC/equinix-chicago.dirB.20150917-132400.UTC.anon.pcap.gz'
p1101
aS'https://aa1603@georgetown.edu:amit1234@data.caida.org/datasets/passive-2015/equinix-chicago/20150917-130000.UTC/equinix-chicago.dirB.20150917-132500.UTC.anon.pcap.gz'
p1102
aS'https://aa1603@georgetown.edu:amit1234@data.caida.org/datasets/passive-2015/equinix-chicago/20150917-130000.UTC/equinix-chicago.dirB.20150917-132600.UTC.anon.pcap.gz'
p1103
aS'https://aa1603@georgetown.edu:amit1234@data.caida.org/datasets/passive-2015/equinix-chicago/20150917-130000.UTC/equinix-chicago.dirB.20150917-132700.UTC.anon.pcap.gz'
p1104
aS'https://aa1603@georgetown.edu:amit1234@data.caida.org/datasets/passive-2015/equinix-chicago/20150917-130000.UTC/equinix-chicago.dirB.20150917-132800.UTC.anon.pcap.gz'
p1105
aS'https://aa1603@georgetown.edu:amit1234@data.caida.org/datasets/passive-2015/equinix-chicago/20150917-130000.UTC/equinix-chicago.dirB.20150917-132900.UTC.anon.pcap.gz'
p1106
aS'https://aa1603@georgetown.edu:amit1234@data.caida.org/datasets/passive-2015/equinix-chicago/20150917-130000.UTC/equinix-chicago.dirB.20150917-133000.UTC.anon.pcap.gz'
p1107
aS'https://aa1603@georgetown.edu:amit1234@data.caida.org/datasets/passive-2015/equinix-chicago/20150917-130000.UTC/equinix-chicago.dirB.20150917-133100.UTC.anon.pcap.gz'
p1108
aS'https://aa1603@georgetown.edu:amit1234@data.caida.org/datasets/passive-2015/equinix-chicago/20150917-130000.UTC/equinix-chicago.dirB.20150917-133200.UTC.anon.pcap.gz'
p1109
aS'https://aa1603@georgetown.edu:amit1234@data.caida.org/datasets/passive-2015/equinix-chicago/20150917-130000.UTC/equinix-chicago.dirB.20150917-133300.UTC.anon.pcap.gz'
p1110
aS'https://aa1603@georgetown.edu:amit1234@data.caida.org/datasets/passive-2015/equinix-chicago/20150917-130000.UTC/equinix-chicago.dirB.20150917-133400.UTC.anon.pcap.gz'
p1111
aS'https://aa1603@georgetown.edu:amit1234@data.caida.org/datasets/passive-2015/equinix-chicago/20150917-130000.UTC/equinix-chicago.dirB.20150917-133500.UTC.anon.pcap.gz'
p1112
aS'https://aa1603@georgetown.edu:amit1234@data.caida.org/datasets/passive-2015/equinix-chicago/20150917-130000.UTC/equinix-chicago.dirB.20150917-133600.UTC.anon.pcap.gz'
p1113
aS'https://aa1603@georgetown.edu:amit1234@data.caida.org/datasets/passive-2015/equinix-chicago/20150917-130000.UTC/equinix-chicago.dirB.20150917-133700.UTC.anon.pcap.gz'
p1114
aS'https://aa1603@georgetown.edu:amit1234@data.caida.org/datasets/passive-2015/equinix-chicago/20150917-130000.UTC/equinix-chicago.dirB.20150917-133800.UTC.anon.pcap.gz'
p1115
aS'https://aa1603@georgetown.edu:amit1234@data.caida.org/datasets/passive-2015/equinix-chicago/20150917-130000.UTC/equinix-chicago.dirB.20150917-133900.UTC.anon.pcap.gz'
p1116
aS'https://aa1603@georgetown.edu:amit1234@data.caida.org/datasets/passive-2015/equinix-chicago/20150917-130000.UTC/equinix-chicago.dirB.20150917-134000.UTC.anon.pcap.gz'
p1117
aS'https://aa1603@georgetown.edu:amit1234@data.caida.org/datasets/passive-2015/equinix-chicago/20150917-130000.UTC/equinix-chicago.dirB.20150917-134100.UTC.anon.pcap.gz'
p1118
aS'https://aa1603@georgetown.edu:amit1234@data.caida.org/datasets/passive-2015/equinix-chicago/20150917-130000.UTC/equinix-chicago.dirB.20150917-134200.UTC.anon.pcap.gz'
p1119
aS'https://aa1603@georgetown.edu:amit1234@data.caida.org/datasets/passive-2015/equinix-chicago/20150917-130000.UTC/equinix-chicago.dirB.20150917-134300.UTC.anon.pcap.gz'
p1120
aS'https://aa1603@georgetown.edu:amit1234@data.caida.org/datasets/passive-2015/equinix-chicago/20150917-130000.UTC/equinix-chicago.dirB.20150917-134400.UTC.anon.pcap.gz'
p1121
aS'https://aa1603@georgetown.edu:amit1234@data.caida.org/datasets/passive-2015/equinix-chicago/20150917-130000.UTC/equinix-chicago.dirB.20150917-134500.UTC.anon.pcap.gz'
p1122
aS'https://aa1603@georgetown.edu:amit1234@data.caida.org/datasets/passive-2015/equinix-chicago/20150917-130000.UTC/equinix-chicago.dirB.20150917-134600.UTC.anon.pcap.gz'
p1123
aS'https://aa1603@georgetown.edu:amit1234@data.caida.org/datasets/passive-2015/equinix-chicago/20150917-130000.UTC/equinix-chicago.dirB.20150917-134700.UTC.anon.pcap.gz'
p1124
aS'https://aa1603@georgetown.edu:amit1234@data.caida.org/datasets/passive-2015/equinix-chicago/20150917-130000.UTC/equinix-chicago.dirB.20150917-134800.UTC.anon.pcap.gz'
p1125
aS'https://aa1603@georgetown.edu:amit1234@data.caida.org/datasets/passive-2015/equinix-chicago/20150917-130000.UTC/equinix-chicago.dirB.20150917-134900.UTC.anon.pcap.gz'
p1126
aS'https://aa1603@georgetown.edu:amit1234@data.caida.org/datasets/passive-2015/equinix-chicago/20150917-130000.UTC/equinix-chicago.dirB.20150917-135000.UTC.anon.pcap.gz'
p1127
aS'https://aa1603@georgetown.edu:amit1234@data.caida.org/datasets/passive-2015/equinix-chicago/20150917-130000.UTC/equinix-chicago.dirB.20150917-135100.UTC.anon.pcap.gz'
p1128
aS'https://aa1603@georgetown.edu:amit1234@data.caida.org/datasets/passive-2015/equinix-chicago/20150917-130000.UTC/equinix-chicago.dirB.20150917-135200.UTC.anon.pcap.gz'
p1129
aS'https://aa1603@georgetown.edu:amit1234@data.caida.org/datasets/passive-2015/equinix-chicago/20150917-130000.UTC/equinix-chicago.dirB.20150917-135300.UTC.anon.pcap.gz'
p1130
aS'https://aa1603@georgetown.edu:amit1234@data.caida.org/datasets/passive-2015/equinix-chicago/20150917-130000.UTC/equinix-chicago.dirB.20150917-135400.UTC.anon.pcap.gz'
p1131
aS'https://aa1603@georgetown.edu:amit1234@data.caida.org/datasets/passive-2015/equinix-chicago/20150917-130000.UTC/equinix-chicago.dirB.20150917-135500.UTC.anon.pcap.gz'
p1132
aS'https://aa1603@georgetown.edu:amit1234@data.caida.org/datasets/passive-2015/equinix-chicago/20150917-130000.UTC/equinix-chicago.dirB.20150917-135600.UTC.anon.pcap.gz'
p1133
aS'https://aa1603@georgetown.edu:amit1234@data.caida.org/datasets/passive-2015/equinix-chicago/20150917-130000.UTC/equinix-chicago.dirB.20150917-135700.UTC.anon.pcap.gz'
p1134
aS'https://aa1603@georgetown.edu:amit1234@data.caida.org/datasets/passive-2015/equinix-chicago/20150917-130000.UTC/equinix-chicago.dirB.20150917-135800.UTC.anon.pcap.gz'
p1135
aS'https://aa1603@georgetown.edu:amit1234@data.caida.org/datasets/passive-2015/equinix-chicago/20150917-130000.UTC/equinix-chicago.dirB.20150917-135900.UTC.anon.pcap.gz'
p1136
aS'https://aa1603@georgetown.edu:amit1234@data.caida.org/datasets/passive-2015/equinix-chicago/20150917-130000.UTC/equinix-chicago.dirB.20150917-140000.UTC.anon.pcap.gz'
p1137
aS'https://aa1603@georgetown.edu:amit1234@data.caida.org/datasets/passive-2015/equinix-chicago/20150917-130000.UTC/equinix-chicago.dirB.20150917-140100.UTC.anon.pcap.gz'
p1138
a.